(dp0
L134541312L
(F4.0
L134541317L
tp1
sL134531073L
(F14.0
L134531084L
tp2
sL134539268L
(F1.3333333333333333
L134539309L
tp3
sL134537558L
(F780.1904761904761
L134537573L
tp4
sL134518791L
(F2.1262458471760795
L134518798L
tp5
sL134533129L
(F1.0
L134533142L
tp6
sL134522891L
(F16.0
L134522910L
tp7
sL134531084L
(F7.0
L134531095L
tp8
sL134518798L
(F4.252491694352159
L134518819L
tp9
sL134524943L
(F512.0
L134524956L
tp10
sL134526296L
(F1.3617021276595744
L134526345L
tp11
sL134520850L
(F0.6666666666666666
L134520860L
tp12
sL134543379L
(F2.0
L134543387L
tp13
sL134528496L
(F1.0361357398530286
L134528553L
tp14
sL134533142L
(F2.0
L134533147L
tp15
sL134531095L
(F14.0
L134531103L
tp16
sL134532997L
(F2.0
L134533002L
tp17
sL134540292L
(F2.0
L134540312L
tp18
sL134533147L
(F2.0
L134533152L
tp19
sL134520860L
(F1.3333333333333333
L134520867L
tp20
sL134521178L
(F42.666666666666664
L134521183L
tp21
sL134522910L
(F32.0
L134522920L
tp22
sL134531103L
(F28.0
L134531114L
tp23
sL134533152L
(F1.0
L134533331L
tp24
sL134543393L
(F8.0
L134543404L
tp25
sL134518819L
(F8.504983388704318
L134518859L
tp26
sL134522920L
(F64.0
L134523199L
tp27
sL134524252L
(F512.0
L134524345L
tp28
sL134531114L
(F14.0
L134531118L
tp29
sL134543404L
(F4.0
L134543416L
tp30
sL134539309L
(F2.6666666666666665
L134539332L
tp31
sL134531118L
(F7.0
L134531134L
tp32
sL134524975L
(F2048.0
L134524985L
tp33
sL134530933L
(F14.0
L134530939L
tp34
sL134541361L
(F2.0
L134541384L
tp35
sL134520882L
(F2.0
L134520901L
tp36
sL134533680L
(F8.0
L134533739L
tp37
sL134543416L
(F3.699421965317919
L134543425L
tp38
sL134524985L
(F4096.0
L134525429L
tp39
sL134533468L
(F1.3333333333333333
L134533477L
tp40
sL134531134L
(F14.0
L134531140L
tp41
sL134531765L
(F21.88702290076336
L134531778L
tp42
sL134537280L
(F10.666666666666666
L134537286L
tp43
sL134535179L
(F20.0
L134535253L
tp44
sL134531140L
(F2.0
L134531145L
tp45
sL134520901L
(F4.0
L134520923L
tp46
sL134537286L
(F21.333333333333332
L134537298L
tp47
sL134532640L
(F21.88702290076336
L134532641L
tp48
sL134541384L
(F1.3333333333333333
L134541391L
tp49
sL134531145L
(F1.3658536585365857
L134531157L
tp50
sL134518859L
(F1.0631229235880397
L134518877L
tp51
sL134543437L
(F4.0
L134543449L
tp52
sL134541391L
(F4.0
L134541396L
tp53
sL134539344L
(F1.3333333333333333
L134539388L
tp54
sL134537298L
(F42.666666666666664
L134537328L
tp55
sL134541396L
(F1.0
L134541444L
tp56
sL134535253L
(F20.0
L134535341L
tp57
sL134543449L
(F8.0
L134543526L
tp58
sL134520923L
(F1.3333333333333333
L134520928L
tp59
sL134527068L
(F1.1556257758717978
L134527078L
tp60
sL134518877L
(F2.1262458471760795
L134518917L
tp61
sL134531167L
(F3.246376811594203
L134531173L
tp62
sL134520928L
(F2.6666666666666665
L134520980L
tp63
sL134543035L
(F1.0
L134543040L
tp64
sL134531173L
(F6.492753623188406
L134531188L
tp65
sL134527078L
(F2.3112515517435956
L134527088L
tp66
sL138555068L
(F1.0
L138555072L
tp67
sL134537234L
(F5.333333333333333
L134537244L
tp68
sL134537228L
(F2.6666666666666665
L134537234L
tp69
sL134527088L
(F4.622503103487191
L134527274L
tp70
sL134517779L
(F0.8888888888888888
L134517816L
tp71
sL134531188L
(F12.985507246376812
L134531194L
tp72
sL134520169L
(F1.6
L134520242L
tp73
sL134531194L
(F25.971014492753625
L134531216L
tp74
sL134521535L
(F2.0
L134521544L
tp75
sL134539388L
(F2.6666666666666665
L134539411L
tp76
sL134518524L
(F0.9090909090909091
L134518585L
tp77
sL134537344L
(F12.19047619047619
L134537354L
tp78
sL134543040L
(F1.0
L134543049L
tp79
sL134532796L
(F1.6231884057971016
L134532814L
tp80
sL134541444L
(F2.0
L134541467L
tp81
sL134518917L
(F1.0631229235880397
L134518922L
tp82
sL134540993L
(F1.0
L134541037L
tp83
sL134518922L
(F1.0
L134518961L
tp84
sL134521544L
(F1.0
L134521557L
tp85
sL134531437L
(F700.3847328244275
L134531441L
tp86
sL134531216L
(F8.657004830917876
L134531219L
tp87
sL134539411L
(F1.7777777777777777
L134539418L
tp88
sL134520980L
(F5.333333333333333
L134520985L
tp89
sL134537365L
(F21.333333333333332
L134537377L
tp90
sL134531223L
(F12.985507246376812
L134531253L
tp91
sL134520985L
(F5.333333333333333
L134521030L
tp92
sL134539418L
(F5.333333333333333
L134539423L
tp93
sL134541467L
(F1.3333333333333333
L134541474L
tp94
sL134532436L
(F5.354110888842723
L134532444L
tp95
sL134528026L
(F1.6124714589402411
L134528036L
tp96
sL134539423L
(F1.3333333333333333
L134539470L
tp97
sL134537377L
(F42.666666666666664
L134537387L
tp98
sL134541474L
(F4.0
L134541479L
tp99
sL134543387L
(F4.0
L134543393L
tp100
sL134543526L
(F16.0
L134543538L
tp101
sL134531441L
(F1.3182756024529159
L134531447L
tp102
sL134524956L
(F1024.0
L134524975L
tp103
sL134537387L
(F42.666666666666664
L134537394L
tp104
sL134535341L
(F20.0
L134535440L
tp105
sL134533002L
(F2.0
L134533007L
tp106
sL134518961L
(F0.9523809523809523
L134518968L
tp107
sL134537394L
(F12.19047619047619
L134537400L
tp108
sL134531253L
(F25.971014492753625
L134531259L
tp109
sL134518272L
(F1.3333333333333333
L134518288L
tp110
sL134543543L
(F12.8
L134543557L
tp111
sL134518968L
(F0.9090909090909091
L134519021L
tp112
sL134531259L
(F51.94202898550725
L134531264L
tp113
sL134516928L
(F1.0
L134516962L
tp114
sL134518477L
(F0.8
L134518482L
tp115
sL134531268L
(F0.683969465648855
L134531295L
tp116
sL134538663L
(F4.0
L134538668L
tp117
sL134521030L
(F10.666666666666666
L134521059L
tp118
sL134543560L
(F4.0
L134543573L
tp119
sL134539980L
(F1.7777777777777777
L134539987L
tp120
sL134523255L
(F32.0
L134523265L
tp121
sL134537422L
(F24.38095238095238
L134537438L
tp122
sL134530765L
(F1.0
L134530767L
tp123
sL134520867L
(F1.0
L134520882L
tp124
sL134537593L
(F97.52380952380952
L134537616L
tp125
sL134543576L
(F4.0
L134543593L
tp126
sL134528036L
(F3.2249429178804823
L134528046L
tp127
sL134543055L
(F4.0
L134543062L
tp128
sL134537438L
(F48.76190476190476
L134537482L
tp129
sL134531295L
(F1.36793893129771
L134531304L
tp130
sL134520528L
(F6.4
L134520554L
tp131
sL134521059L
(F10.666666666666666
L134521064L
tp132
sL134539493L
(F1.7777777777777777
L134539500L
tp133
sL134533350L
(F1.0
L134533373L
tp134
sL134537573L
(F1560.3809523809523
L134537579L
tp135
sL134521064L
(F5.333333333333333
L134521088L
tp136
sL134530994L
(F28.0
L134531002L
tp137
sL134541546L
(F1.3333333333333333
L134541553L
tp138
sL134539500L
(F5.333333333333333
L134539505L
tp139
sL134536914L
(F1.0
L134536957L
tp140
sL138554816L
(F1.0
L138554820L
tp141
sL134516976L
(F1.0
L134516980L
tp142
sL134539505L
(F1.3333333333333333
L134539549L
tp143
sL134531314L
(F43.77404580152672
L134531320L
tp144
sL134531795L
(F1.515353311135775
L134531801L
tp145
sL134543606L
(F16.0
L134543617L
tp146
sL134541658L
(F8.0
L134541670L
tp147
sL134531320L
(F87.54809160305344
L134531325L
tp148
sL134519033L
(F2.5806451612903225
L134519068L
tp149
sL138555100L
(F1.0
L138555104L
tp150
sL134531325L
(F87.54809160305344
L134531333L
tp151
sL134521557L
(F2.0
L134521586L
tp152
sL134521088L
(F10.666666666666666
L134521093L
tp153
sL134543617L
(F10.666666666666666
L134543627L
tp154
sL134536527L
(F1.0
L134536549L
tp155
sL134521093L
(F10.666666666666666
L134521108L
tp156
sL134535119L
(F20.0
L134535179L
tp157
sL134523265L
(F64.0
L134523544L
tp158
sL134537482L
(F97.52380952380952
L134537507L
tp159
sL134532937L
(F0.9845020998909032
L134532978L
tp160
sL134517007L
(F2.0
L134517016L
tp161
sL134531344L
(F87.54809160305344
L134531359L
tp162
sL134535024L
(F20.0
L134535029L
tp163
sL134521108L
(F21.333333333333332
L134521149L
tp164
sL134524481L
(F512.0
L134524491L
tp165
sL134519513L
(F2.071197411003236
L134519601L
tp166
sL134517016L
(F4.0
L134517033L
tp167
sL134519068L
(F5.161290322580645
L134519088L
tp168
sL134539549L
(F2.6666666666666665
L134539572L
tp169
sL134533407L
(F0.6666666666666666
L134533417L
tp170
sL134543648L
(F1.0
L134543698L
tp171
sL134537507L
(F97.52380952380952
L134537527L
tp172
sL134536778L
(F2.0
L134536783L
tp173
sL134533417L
(F1.3333333333333333
L134533430L
tp174
sL134527274L
(F0.8703227588551515
L134527315L
tp175
sL134539212L
(F2.0
L134539229L
tp176
sL134530483L
(F1.0
L134530513L
tp177
sL134542795L
(F1.3333333333333333
L134542806L
tp178
sL134519088L
(F3.440860215053763
L134519094L
tp179
sL134531377L
(F350.19236641221374
L134531395L
tp180
sL134532870L
(F3.1507692307692308
L134532878L
tp181
sL134539572L
(F1.7777777777777777
L134539579L
tp182
sL134534878L
(F2.0
L134534908L
tp183
sL134519094L
(F10.32258064516129
L134519167L
tp184
sL134533513L
(F1.0
L134533550L
tp185
sL134539579L
(F5.333333333333333
L134539584L
tp186
sL134521149L
(F42.666666666666664
L134521178L
tp187
sL134523199L
(F16.0
L134523255L
tp188
sL134539584L
(F1.3333333333333333
L134539632L
tp189
sL134543072L
(F1.0
L134543081L
tp190
sL134531395L
(F700.3847328244275
L134531403L
tp191
sL134533007L
(F1.0
L134533102L
tp192
sL134517064L
(F2.0
L134517073L
tp193
sL134528396L
(F4.144542959412115
L134528401L
tp194
sL134537546L
(F390.0952380952381
L134537551L
tp195
sL134531403L
(F1400.769465648855
L134531414L
tp196
sL134541646L
(F2.0
L134541652L
tp197
sL134529359L
(F0.8170980153554981
L134529370L
tp198
sL134517073L
(F4.0
L134517091L
tp199
sL134543698L
(F2.0
L134543704L
tp200
sL134527315L
(F1.740645517710303
L134527338L
tp201
sL134537556L
(F1560.3809523809523
L134537558L
tp202
sL134539662L
(F5.333333333333333
L134539667L
tp203
sL134531414L
(F700.3847328244275
L134531426L
tp204
sL134539184L
(F1.0
L134539192L
tp205
sL134543704L
(F1.8018018018018016
L134543737L
tp206
sL134531812L
(F1.4646505925623212
L134531818L
tp207
sL134529370L
(F1.6341960307109962
L134529372L
tp208
sL134529372L
(F1.6341960307109962
L134529383L
tp209
sL134521183L
(F21.333333333333332
L134521197L
tp210
sL134528848L
(F1.3815143198040383
L134528855L
tp211
sL134537616L
(F195.04761904761904
L134537625L
tp212
sL134531426L
(F1400.769465648855
L134531437L
tp213
sL134517091L
(F1.0
L134517093L
tp214
sL134533477L
(F2.6666666666666665
L134533501L
tp215
sL134541670L
(F1.4545454545454546
L134541681L
tp216
sL134529383L
(F1.6110761485210823
L134529388L
tp217
sL134527338L
(F1.160430345140202
L134527345L
tp218
sL134537579L
(F1560.3809523809523
L134537581L
tp219
sL134529388L
(F0.6715710536644052
L134529422L
tp220
sL134521197L
(F21.333333333333332
L134521202L
tp221
sL134517104L
(F1.0
L134517113L
tp222
sL134527345L
(F3.481291035420606
L134527350L
tp223
sL134521202L
(F1.8285714285714285
L134521214L
tp224
sL134539667L
(F1.3333333333333333
L134539711L
tp225
sL134527350L
(F0.8703227588551515
L134527402L
tp226
sL134531447L
(F43.77404580152672
L134531457L
tp227
sL134517113L
(F2.0
L134517132L
tp228
sL134541692L
(F1.4545454545454546
L134541699L
tp229
sL134533501L
(F1.3333333333333333
L134533513L
tp230
sL134521214L
(F3.657142857142857
L134521216L
tp231
sL134519167L
(F0.6451612903225806
L134519177L
tp232
sL134521216L
(F3.657142857142857
L134521231L
tp233
sL134531457L
(F87.54809160305344
L134531462L
tp234
sL134541699L
(F3.2
L134541704L
tp235
sL134535556L
(F20.0
L134535686L
tp236
sL134531462L
(F1.9553312647048795
L134531467L
tp237
sL134539655L
(F1.7777777777777777
L134539662L
tp238
sL134541704L
(F1.0
L134541712L
tp239
sL134519177L
(F1.2903225806451613
L134519192L
tp240
sL134531467L
(F21.88702290076336
L134531475L
tp241
sL134517132L
(F1.0
L134517134L
tp242
sL134521922L
(F1.1636363636363636
L134521946L
tp243
sL134529422L
(F1.0
L134529477L
tp244
sL134521231L
(F7.314285714285714
L134521267L
tp245
sL134517136L
(F1.0
L134517147L
tp246
sL134531480L
(F87.54809160305344
L134531485L
tp247
sL134530009L
(F4.0
L134530017L
tp248
sL134531475L
(F43.77404580152672
L134531480L
tp249
sL134518444L
(F2.6666666666666665
L134518465L
tp250
sL134519192L
(F0.9523809523809523
L134519219L
tp251
sL134537625L
(F2535.6190476190477
L134537653L
tp252
sL134517147L
(F1.8181818181818181
L134517149L
tp253
sL134531485L
(F43.77404580152672
L134531491L
tp254
sL134517152L
(F2.0
L134517161L
tp255
sL134538992L
(F1.0
L134539031L
tp256
sL134531491L
(F87.54809160305344
L134531496L
tp257
sL134543008L
(F1.0
L134543017L
tp258
sL134531496L
(F87.54809160305344
L134531501L
tp259
sL134517161L
(F4.0
L134517179L
tp260
sL134527402L
(F1.740645517710303
L134527425L
tp261
sL134541739L
(F2.0
L134541771L
tp262
sL134530760L
(F16.0
L134530765L
tp263
sL134531501L
(F87.54809160305344
L134531515L
tp264
sL134533550L
(F2.0
L134533555L
tp265
sL134526365L
(F1.8156028368794326
L134526372L
tp266
sL134523976L
(F128.0
L134523995L
tp267
sL134521267L
(F7.314285714285714
L134521272L
tp268
sL134537653L
(F2535.6190476190477
L134537681L
tp269
sL134539332L
(F1.7777777777777777
L134539339L
tp270
sL134530733L
(F16.0
L134530740L
tp271
sL134521272L
(F3.657142857142857
L134521284L
tp272
sL134543801L
(F2.0
L134543803L
tp273
sL134517179L
(F1.0
L134517197L
tp274
sL134539711L
(F2.6666666666666665
L134539734L
tp275
sL134539162L
(F4.0
L134539181L
tp276
sL134527425L
(F1.160430345140202
L134527432L
tp277
sL134539339L
(F5.333333333333333
L134539344L
tp278
sL134521284L
(F7.314285714285714
L134521286L
tp279
sL134529477L
(F2.0
L134529484L
tp280
sL134521286L
(F7.314285714285714
L134521292L
tp281
sL134527432L
(F3.481291035420606
L134527437L
tp282
sL134541317L
(F1.0
L134541361L
tp283
sL134531530L
(F350.19236641221374
L134531552L
tp284
sL134541771L
(F4.0
L134541781L
tp285
sL134521292L
(F14.628571428571428
L134521296L
tp286
sL134527437L
(F0.8703227588551515
L134527494L
tp287
sL134521296L
(F7.314285714285714
L134521302L
tp288
sL134537681L
(F2535.6190476190477
L134537693L
tp289
sL134541781L
(F2.6666666666666665
L134541788L
tp290
sL134521302L
(F14.628571428571428
L134521306L
tp291
sL134537581L
(F312.0761904761905
L134537593L
tp292
sL134543832L
(F2.0
L134543836L
tp293
sL138554788L
(F1.0
L138554792L
tp294
sL134521306L
(F0.6666666666666666
L134521312L
tp295
sL134519259L
(F0.9523809523809523
L134519268L
tp296
sL134541788L
(F2.0
L134541828L
tp297
sL134539741L
(F5.333333333333333
L134539746L
tp298
sL134521312L
(F1.3333333333333333
L134521322L
tp299
sL134539746L
(F1.3333333333333333
L134539794L
tp300
sL134519268L
(F1.9047619047619047
L134519290L
tp301
sL134533605L
(F8.0
L134533621L
tp302
sL134521596L
(F8.0
L134521606L
tp303
sL134521322L
(F0.5505376344086022
L134521328L
tp304
sL134517227L
(F2.0
L134517303L
tp305
sL134521328L
(F1.1010752688172043
L134521334L
tp306
sL134529521L
(F4.0
L134529554L
tp307
sL134525429L
(F1024.0
L134525494L
tp308
sL134521334L
(F0.4839319470699433
L134521341L
tp309
sL134526377L
(F1.3617021276595744
L134526418L
tp310
sL134529956L
(F2.0
L134529984L
tp311
sL134537721L
(F2535.6190476190477
L134537749L
tp312
sL134519290L
(F1.2698412698412698
L134519302L
tp313
sL134533628L
(F16.0
L134533631L
tp314
sL134521341L
(F1.0
L134521381L
tp315
sL134531157L
(F1.6231884057971016
L134531167L
tp316
sL134526720L
(F1.0264635124298316
L134526767L
tp317
sL134532195L
(F7.209873593982552
L134532199L
tp318
sL134541828L
(F4.0
L134541846L
tp319
sL134519302L
(F1.5533980582524272
L134519308L
tp320
sL134536961L
(F4.0
L134536965L
tp321
sL134538668L
(F1.0
L134538716L
tp322
sL134519308L
(F3.1067961165048543
L134519318L
tp323
sL134537986L
(F39.61904761904762
L134538003L
tp324
sL134517040L
(F12.499999999999998
L134517040L
tp325
sL134531601L
(F5603.07786259542
L134531630L
tp326
sL134529554L
(F4.0
L134529560L
tp327
sL134537749L
(F2535.6190476190477
L134537777L
tp328
sL134519318L
(F6.213592233009709
L134519323L
tp329
sL134529560L
(F8.0
L134529568L
tp330
sL134532868L
(F7.420289855072464
L134532870L
tp331
sL134519323L
(F2.071197411003236
L134519339L
tp332
sL134541853L
(F2.6666666666666665
L134541858L
tp333
sL134536965L
(F2.6666666666666665
L134536988L
tp334
sL134529568L
(F4.0
L134529573L
tp335
sL134541858L
(F2.0
L134541898L
tp336
sL134527524L
(F3.481291035420606
L134527529L
tp337
sL134521381L
(F2.0
L134521397L
tp338
sL134529575L
(F1.0
L134529588L
tp339
sL134527529L
(F0.8703227588551515
L134527569L
tp340
sL134535071L
(F20.0
L134535119L
tp341
sL134519339L
(F4.142394822006472
L134519344L
tp342
sL134520242L
(F1.6
L134520251L
tp343
sL134531630L
(F11206.15572519084
L134531641L
tp344
sL134519901L
(F1.6
L134519906L
tp345
sL134539824L
(F5.333333333333333
L134539829L
tp346
sL134537777L
(F2535.6190476190477
L134537805L
tp347
sL134528855L
(F4.144542959412115
L134528860L
tp348
sL134533555L
(F2.0
L134533569L
tp349
sL134529588L
(F1.0
L134529611L
tp350
sL134539829L
(F1.3333333333333333
L134539873L
tp351
sL134525494L
(F2048.0
L134525504L
tp352
sL134517303L
(F1.3333333333333333
L134517324L
tp353
sL134531641L
(F5603.07786259542
L134531653L
tp354
sL134539903L
(F5.333333333333333
L134539908L
tp355
sL134531515L
(F175.09618320610687
L134531530L
tp356
sL134525504L
(F4096.0
L134525726L
tp357
sL134541067L
(F4.0
L134541072L
tp358
sL134531653L
(F11206.15572519084
L134531664L
tp359
sL134520588L
(F1.0
L134520598L
tp360
sL134541898L
(F4.0
L134541924L
tp361
sL134529611L
(F1.0
L134529643L
tp362
sL134517324L
(F1.0
L134517336L
tp363
sL134537805L
(F2535.6190476190477
L134537830L
tp364
sL134537244L
(F5.333333333333333
L134537280L
tp365
sL134531664L
(F5603.07786259542
L134531676L
tp366
sL134527569L
(F1.740645517710303
L134527576L
tp367
sL134521427L
(F4.0
L134521432L
tp368
sL134524345L
(F128.0
L134524406L
tp369
sL134517336L
(F1.0
L134517383L
tp370
sL134531359L
(F175.09618320610687
L134531377L
tp371
sL134531676L
(F11206.15572519084
L134531687L
tp372
sL134519390L
(F4.142394822006472
L134519413L
tp373
sL134524005L
(F512.0
L134524191L
tp374
sL134539873L
(F2.6666666666666665
L134539896L
tp375
sL134543803L
(F1.8181818181818181
L134543832L
tp376
sL134541924L
(F8.0
L134541935L
tp377
sL134529984L
(F2.0
L134530009L
tp378
sL134537830L
(F2535.6190476190477
L134537855L
tp379
sL134529809L
(F3.2
L134529823L
tp380
sL134542780L
(F1.0
L134542789L
tp381
sL134529643L
(F2.0
L134529657L
tp382
sL134523666L
(F64.0
L134523683L
tp383
sL134541935L
(F4.0
L134541970L
tp384
sL134539632L
(F2.6666666666666665
L134539655L
tp385
sL134531699L
(F11206.15572519084
L134531710L
tp386
sL134534722L
(F1.0
L134534755L
tp387
sL134519413L
(F2.7615965480043148
L134519420L
tp388
sL134521463L
(F1.0
L134521505L
tp389
sL134539896L
(F1.7777777777777777
L134539903L
tp390
sL134529657L
(F4.0
L134529669L
tp391
sL134519420L
(F8.284789644012944
L134519425L
tp392
sL134531710L
(F5603.07786259542
L134531716L
tp393
sL134537855L
(F2535.6190476190477
L134537877L
tp394
sL134519425L
(F2.071197411003236
L134519478L
tp395
sL134531716L
(F933.8463104325699
L134531717L
tp396
sL134529669L
(F2.6666666666666665
L134529697L
tp397
sL134531718L
(F1.9126142352077915
L134531723L
tp398
sL134533569L
(F4.0
L134533600L
tp399
sL134527494L
(F1.740645517710303
L134527517L
tp400
sL134531723L
(F21.88702290076336
L134531729L
tp401
sL134538589L
(F1.0
L134538633L
tp402
sL134519917L
(F6.4
L134519924L
tp403
sL134531729L
(F21.88702290076336
L134531735L
tp404
sL134541970L
(F2.0
L134541976L
tp405
sL134518211L
(F2.0
L134518223L
tp406
sL134537877L
(F2535.6190476190477
L134537902L
tp407
sL134535830L
(F2.0
L134535970L
tp408
sL134531735L
(F21.88702290076336
L134531741L
tp409
sL134523544L
(F16.0
L134523605L
tp410
sL134531741L
(F21.88702290076336
L134531747L
tp411
sL134521505L
(F1.0
L134521519L
tp412
sL134530700L
(F4.0
L134530723L
tp413
sL134531747L
(F21.88702290076336
L134531753L
tp414
sL134541988L
(F4.0
L134542016L
tp415
sL134531753L
(F21.88702290076336
L134531759L
tp416
sL134537902L
(F2535.6190476190477
L134537927L
tp417
sL134531759L
(F21.88702290076336
L134531765L
tp418
sL134522312L
(F4.0
L134522318L
tp419
sL134539957L
(F2.6666666666666665
L134539980L
tp420
sL134517430L
(F1.0
L134517549L
tp421
sL134519924L
(F12.8
L134519929L
tp422
sL134530518L
(F2.0
L134530609L
tp423
sL134527679L
(F1.4686991560179103
L134527689L
tp424
sL134542016L
(F8.0
L134542028L
tp425
sL134531778L
(F43.77404580152672
L134531784L
tp426
sL134520570L
(F1.0
L134520588L
tp427
sL134537927L
(F181.1156462585034
L134537949L
tp428
sL134531784L
(F87.54809160305344
L134531790L
tp429
sL134527689L
(F2.9373983120358207
L134527968L
tp430
sL134542028L
(F8.0
L134542056L
tp431
sL134519501L
(F2.7615965480043148
L134519508L
tp432
sL134531790L
(F175.09618320610687
L134531795L
tp433
sL134517197L
(F1.0
L134517227L
tp434
sL134539908L
(F1.3333333333333333
L134539957L
tp435
sL134539987L
(F5.333333333333333
L134539992L
tp436
sL134519508L
(F8.284789644012944
L134519513L
tp437
sL134523605L
(F8.0
L134523611L
tp438
sL134539992L
(F1.3333333333333333
L134540022L
tp439
sL134531801L
(F3.03070662227155
L134531807L
tp440
sL134523611L
(F16.0
L134523629L
tp441
sL134537949L
(F211.3015873015873
L134537982L
tp442
sL134531807L
(F6.0614132445431
L134531812L
tp443
sL134528588L
(F1.0361357398530286
L134528636L
tp444
sL134526372L
(F5.446808510638298
L134526377L
tp445
sL134533860L
(F5.333333333333333
L134533898L
tp446
sL134542056L
(F16.0
L134542082L
tp447
sL134531818L
(F2.9293011851246424
L134531830L
tp448
sL134531879L
(F6.763859400802076
L134531884L
tp449
sL134523629L
(F16.0
L134523642L
tp450
sL134529774L
(F2.6666666666666665
L134529788L
tp451
sL134521586L
(F4.0
L134521596L
tp452
sL134520275L
(F3.2
L134520282L
tp453
sL134529748L
(F5.333333333333333
L134529774L
tp454
sL134519934L
(F6.4
L134519939L
tp455
sL134540022L
(F4.0
L134540050L
tp456
sL134523642L
(F32.0
L134523648L
tp457
sL134531835L
(F21.88702290076336
L134531841L
tp458
sL134529788L
(F1.6
L134529809L
tp459
sL134537982L
(F422.6031746031746
L134537986L
tp460
sL134523648L
(F64.0
L134523666L
tp461
sL134531841L
(F43.77404580152672
L134531857L
tp462
sL134542082L
(F16.0
L134542096L
tp463
sL134540387L
(F3.6363636363636362
L134540389L
tp464
sL134542806L
(F2.6666666666666665
L134542817L
tp465
sL134521606L
(F16.0
L134521792L
tp466
sL134531884L
(F5.167057127410344
L134531890L
tp467
sL134533898L
(F10.666666666666666
L134533912L
tp468
sL134542096L
(F8.88888888888889
L134542119L
tp469
sL134531857L
(F43.77404580152672
L134531864L
tp470
sL134540050L
(F1.0
L134540058L
tp471
sL134538003L
(F2.6666666666666665
L134538005L
tp472
sL134538005L
(F1.0
L134538069L
tp473
sL134531864L
(F21.88702290076336
L134531868L
tp474
sL134540058L
(F1.0
L134540096L
tp475
sL134526767L
(F2.052927024859663
L134526778L
tp476
sL134531868L
(F43.77404580152672
L134531873L
tp477
sL134525726L
(F1024.0
L134525790L
tp478
sL134529823L
(F3.2
L134529828L
tp479
sL134543184L
(F64.0
L134543189L
tp480
sL134531873L
(F3.381929700401038
L134531879L
tp481
sL134535970L
(F1.0526315789473684
L134535978L
tp482
sL134523683L
(F128.0
L134523701L
tp483
sL134529828L
(F1.0
L134529893L
tp484
sL134542119L
(F17.77777777777778
L134542124L
tp485
sL134543836L
(F1.0
L134543856L
tp486
sL134535978L
(F1.0
L134535993L
tp487
sL134540423L
(F1.0
L134540473L
tp488
sL134542124L
(F17.77777777777778
L134542130L
tp489
sL134517549L
(F2.6666666666666665
L134517553L
tp490
sL134537693L
(F2535.6190476190477
L134537721L
tp491
sL134517553L
(F0.6666666666666666
L134517562L
tp492
sL134542130L
(F35.55555555555556
L134542136L
tp493
sL134536423L
(F4.0
L134536454L
tp494
sL134523701L
(F32.0
L134523711L
tp495
sL134517816L
(F1.0
L134517871L
tp496
sL134531896L
(F20.668228509641377
L134531901L
tp497
sL134535993L
(F1.3333333333333333
L134535997L
tp498
sL134517562L
(F1.3333333333333333
L134517586L
tp499
sL134531901L
(F6.889409503213793
L134531906L
tp500
sL134542142L
(F3.4224598930481283
L134542147L
tp501
sL134523711L
(F64.0
L134523721L
tp502
sL134540096L
(F2.0
L134540112L
tp503
sL134531552L
(F700.3847328244275
L134531581L
tp504
sL134531906L
(F21.88702290076336
L134531912L
tp505
sL134542147L
(F142.22222222222223
L134542153L
tp506
sL134536673L
(F1.2307692307692308
L134536675L
tp507
sL134531912L
(F43.77404580152672
L134531918L
tp508
sL134523721L
(F128.0
L134523907L
tp509
sL134531918L
(F87.54809160305344
L134531923L
tp510
sL134540112L
(F4.0
L134540122L
tp511
sL134542136L
(F71.11111111111111
L134542142L
tp512
sL134517586L
(F0.8888888888888888
L134517596L
tp513
sL134531923L
(F87.54809160305344
L134531931L
tp514
sL134538069L
(F2.0
L134538092L
tp515
sL134518585L
(F1.8181818181818181
L134518603L
tp516
sL134519641L
(F2.071197411003236
L134519652L
tp517
sL134540122L
(F8.0
L134540180L
tp518
sL134531931L
(F175.09618320610687
L134531942L
tp519
sL134517596L
(F1.7777777777777777
L134517605L
tp520
sL134526778L
(F4.105854049719326
L134526789L
tp521
sL134525790L
(F85.33333333333333
L134525803L
tp522
sL134542176L
(F37.372262773722625
L134542182L
tp523
sL134537185L
(F2.6666666666666665
L134537198L
tp524
sL134519652L
(F4.142394822006472
L134519684L
tp525
sL134517605L
(F0.8888888888888888
L134517667L
tp526
sL134542182L
(F24.914841849148416
L134542188L
tp527
sL134521432L
(F4.0
L134521461L
tp528
sL134539068L
(F4.0
L134539111L
tp529
sL134525803L
(F1.0
L134525810L
tp530
sL134542188L
(F49.82968369829683
L134542193L
tp531
sL134533912L
(F5.333333333333333
L134534004L
tp532
sL134535997L
(F0.6666666666666666
L134536018L
tp533
sL134542193L
(F49.82968369829683
L134542198L
tp534
sL134525810L
(F1.0
L134525860L
tp535
sL134531219L
(F6.492753623188406
L134531223L
tp536
sL134534004L
(F2.6666666666666665
L134534024L
tp537
sL134542198L
(F284.44444444444446
L134542247L
tp538
sL134538104L
(F1.0
L134538148L
tp539
sL134537151L
(F8.0
L134537154L
tp540
sL134531965L
(F87.54809160305344
L134531977L
tp541
sL134536064L
(F2.6666666666666665
L134536068L
tp542
sL138555200L
(F1.0
L138555204L
tp543
sL134528860L
(F1.0361357398530286
L134528905L
tp544
sL134528491L
(F4.144542959412115
L134528496L
tp545
sL134519684L
(F2.071197411003236
L134519688L
tp546
sL134532591L
(F1.2817907159919004
L134532599L
tp547
sL134519688L
(F0.7766990291262136
L134519706L
tp548
sL134531977L
(F175.09618320610687
L134531988L
tp549
sL134535686L
(F20.0
L134535830L
tp550
sL134536344L
(F1.0
L134536368L
tp551
sL134532931L
(F1.3856562922868743
L134532936L
tp552
sL134531988L
(F87.54809160305344
L134531997L
tp553
sL134529942L
(F1.0
L134529944L
tp554
sL134532912L
(F1.3856562922868743
L134532920L
tp555
sL134529944L
(F1.0
L134529956L
tp556
sL134519706L
(F1.5533980582524272
L134519713L
tp557
sL134540187L
(F16.0
L134540224L
tp558
sL134531997L
(F43.77404580152672
L134532002L
tp559
sL134526789L
(F8.211708099438653
L134527068L
tp560
sL134519713L
(F1.5533980582524272
L134519718L
tp561
sL134532002L
(F1.2874719353390212
L134532008L
tp562
sL134517667L
(F1.7777777777777777
L134517692L
tp563
sL134525860L
(F2.0
L134525879L
tp564
sL134534053L
(F1.0
L134534083L
tp565
sL134519718L
(F0.7766990291262136
L134519727L
tp566
sL134542247L
(F568.8888888888889
L134542252L
tp567
sL134532008L
(F2.5749438706780423
L134532054L
tp568
sL134542252L
(F568.8888888888889
L134542303L
tp569
sL134519727L
(F0.8743169398907104
L134519749L
tp570
sL134526345L
(F2.723404255319149
L134526365L
tp571
sL138555208L
(F1.0
L138555212L
tp572
sL134525879L
(F0.9523809523809523
L134525898L
tp573
sL134538171L
(F1.3333333333333333
L134538178L
tp574
sL134517692L
(F3.5555555555555554
L134517723L
tp575
sL134543432L
(F2.0
L134543437L
tp576
sL134533621L
(F16.0
L134533628L
tp577
sL134540224L
(F1.1428571428571428
L134540244L
tp578
sL134538178L
(F4.0
L134538183L
tp579
sL134534083L
(F1.0
L134534107L
tp580
sL134528732L
(F2.0722714797060573
L134528755L
tp581
sL134519749L
(F1.7486338797814207
L134519757L
tp582
sL134538825L
(F4.0
L134538830L
tp583
sL134536135L
(F1.0
L134536176L
tp584
sL134542985L
(F2.0
L134542991L
tp585
sL134525898L
(F1.9047619047619047
L134525913L
tp586
sL134519757L
(F1.0
L134519893L
tp587
sL134530893L
(F14.0
L134530897L
tp588
sL134532837L
(F3.246376811594203
L134532843L
tp589
sL134540244L
(F1.0
L134540246L
tp590
sL134532054L
(F2.5749438706780423
L134532090L
tp591
sL134532936L
(F15.573331613343443
L134532937L
tp592
sL134525913L
(F3.2
L134525933L
tp593
sL134517723L
(F0.8888888888888888
L134517767L
tp594
sL134521820L
(F8.0
L134521847L
tp595
sL134542303L
(F1137.7777777777778
L134542340L
tp596
sL134527968L
(F0.6573273808508866
L134527976L
tp597
sL134537040L
(F1.0
L134537055L
tp598
sL134540258L
(F2.0
L134540279L
tp599
sL134530020L
(F2.0
L134530038L
tp600
sL134530897L
(F7.0
L134530920L
tp601
sL134527976L
(F2.052927024859663
L134527982L
tp602
sL138554876L
(F1.0
L138554880L
tp603
sL134543121L
(F7.111111111111111
L134543128L
tp604
sL134541479L
(F1.0
L134541523L
tp605
sL134525933L
(F6.4
L134525944L
tp606
sL134527982L
(F1.0130589631974674
L134527989L
tp607
sL134531581L
(F1400.769465648855
L134531590L
tp608
sL134536176L
(F1.0
L134536294L
tp609
sL134527989L
(F2.0261179263949347
L134527997L
tp610
sL134530038L
(F4.0
L134530067L
tp611
sL134521847L
(F1.1428571428571428
L134521857L
tp612
sL134525944L
(F12.8
L134526220L
tp613
sL134518612L
(F0.9302325581395348
L134518618L
tp614
sL134532090L
(F5.149887741356085
L134532107L
tp615
sL134533631L
(F8.0
L134533661L
tp616
sL134529484L
(F2.0
L134529521L
tp617
sL134527997L
(F4.052235852789869
L134528008L
tp618
sL134543737L
(F1.2903225806451613
L134543745L
tp619
sL138555004L
(F1.0
L138555008L
tp620
sL134523907L
(F32.0
L134523945L
tp621
sL134542340L
(F1137.7777777777778
L134542383L
tp622
sL134517767L
(F1.7777777777777777
L134517774L
tp623
sL134528008L
(F8.104471705579739
L134528014L
tp624
sL134532107L
(F2.281240551851439
L134532162L
tp625
sL134538253L
(F1.3333333333333333
L134538260L
tp626
sL134528014L
(F1.8009937123510533
L134528026L
tp627
sL134536670L
(F1.7777777777777777
L134536673L
tp628
sL134530067L
(F8.0
L134530098L
tp629
sL134538260L
(F4.0
L134538265L
tp630
sL134521878L
(F2.909090909090909
L134521912L
tp631
sL134540312L
(F1.0
L134540314L
tp632
sL134538265L
(F1.0
L134538309L
tp633
sL134540314L
(F1.0
L134540332L
tp634
sL134538415L
(F1.3333333333333333
L134538422L
tp635
sL134518618L
(F1.8604651162790695
L134518726L
tp636
sL134543776L
(F1.0
L134543801L
tp637
sL138555172L
(F1.0
L138555176L
tp638
sL134519984L
(F25.6
L134520033L
tp639
sL134542153L
(F18.686131386861312
L134542176L
tp640
sL134534180L
(F1.0
L134534227L
tp641
sL134531590L
(F2801.53893129771
L134531596L
tp642
sL134538716L
(F2.0
L134538739L
tp643
sL134523945L
(F64.0
L134523963L
tp644
sL134540332L
(F2.0
L134540339L
tp645
sL134543538L
(F32.0
L134543543L
tp646
sL134528046L
(F6.4498858357609645
L134528325L
tp647
sL134542383L
(F568.8888888888889
L134542389L
tp648
sL134530098L
(F16.0
L134530115L
tp649
sL134540339L
(F1.8181818181818181
L134540387L
tp650
sL134542389L
(F1137.7777777777778
L134542412L
tp651
sL134521912L
(F5.818181818181818
L134521914L
tp652
sL134536018L
(F1.3333333333333333
L134536049L
tp653
sL134521914L
(F0.7272727272727273
L134521922L
tp654
sL134523963L
(F64.0
L134523976L
tp655
sL134532162L
(F4.562481103702878
L134532168L
tp656
sL134530115L
(F2.0
L134530133L
tp657
sL134519939L
(F12.8
L134519944L
tp658
sL134538309L
(F2.0
L134538332L
tp659
sL134536988L
(F1.6
L134537032L
tp660
sL134532168L
(F4.562481103702878
L134532174L
tp661
sL134531596L
(F5603.07786259542
L134531601L
tp662
sL134542412L
(F1137.7777777777778
L134542480L
tp663
sL134532174L
(F9.124962207405757
L134532183L
tp664
sL134537400L
(F24.38095238095238
L134537422L
tp665
sL134530767L
(F1.0
L134530837L
tp666
sL134534227L
(F1.0
L134534254L
tp667
sL134530133L
(F1.0
L134530155L
tp668
sL134532183L
(F9.124962207405757
L134532189L
tp669
sL134521946L
(F1.0158730158730158
L134521948L
tp670
sL134523995L
(F256.0
L134524005L
tp671
sL134521948L
(F1.0
L134521973L
tp672
sL134532189L
(F18.249924414811513
L134532195L
tp673
sL134529893L
(F1.0
L134529905L
tp674
sL134541558L
(F1.0
L134541646L
tp675
sL134519906L
(F3.2
L134519917L
tp676
sL134538339L
(F4.0
L134538344L
tp677
sL134540389L
(F3.6363636363636362
L134540404L
tp678
sL134536294L
(F1.0
L134536318L
tp679
sL134532199L
(F1.802468398495638
L134532212L
tp680
sL134538344L
(F1.0
L134538392L
tp681
sL134533102L
(F1.0
L134533129L
tp682
sL134530155L
(F2.0
L134530160L
tp683
sL134539794L
(F2.6666666666666665
L134539817L
tp684
sL134534254L
(F1.0
L134534281L
tp685
sL134517871L
(F1.0
L134517884L
tp686
sL134530160L
(F2.0
L134530165L
tp687
sL134530920L
(F14.0
L134530933L
tp688
sL134541681L
(F2.909090909090909
L134541692L
tp689
sL134540819L
(F1.3333333333333333
L134540826L
tp690
sL134532212L
(F3.604936796991276
L134532232L
tp691
sL134530165L
(F1.0
L134530199L
tp692
sL134519929L
(F3.2
L134519934L
tp693
sL134517884L
(F2.0
L134517894L
tp694
sL134536318L
(F2.0
L134536323L
tp695
sL134521983L
(F2.0
L134521993L
tp696
sL134540416L
(F1.095890410958904
L134540423L
tp697
sL134531264L
(F51.94202898550725
L134531268L
tp698
sL134536323L
(F2.0
L134536344L
tp699
sL134541846L
(F8.0
L134541853L
tp700
sL134517894L
(F2.0
L134518095L
tp701
sL134515905L
(F2.0
L134515910L
tp702
sL134519944L
(F1.6
L134519953L
tp703
sL134534281L
(F1.0
L134534430L
tp704
sL134520343L
(F6.4
L134520369L
tp705
sL134532237L
(F18.249924414811513
L134532243L
tp706
sL134543128L
(F1.1636363636363636
L134543133L
tp707
sL134542480L
(F12.66542980828695
L134542500L
tp708
sL134519953L
(F12.8
L134519984L
tp709
sL134534134L
(F1.0
L134534180L
tp710
sL134532243L
(F36.499848829623026
L134532249L
tp711
sL134530199L
(F1.0
L134530208L
tp712
sL134538392L
(F2.0
L134538415L
tp713
sL134532249L
(F72.99969765924605
L134532258L
tp714
sL134519601L
(F4.142394822006472
L134519641L
tp715
sL134530208L
(F2.0
L134530213L
tp716
sL138555248L
(F1.0
L138555252L
tp717
sL134532258L
(F3.893332903335861
L134532290L
tp718
sL134518299L
(F2.6666666666666665
L134518320L
tp719
sL134542500L
(F25.3308596165739
L134542502L
tp720
sL134530213L
(F2.0
L134530218L
tp721
sL134542502L
(F0.7738814993954051
L134542507L
tp722
sL134529905L
(F2.0
L134529942L
tp723
sL134515880L
(F1.0
L134515905L
tp724
sL134542876L
(F1.0
L134542885L
tp725
sL134530218L
(F1.0
L134530222L
tp726
sL134542507L
(F25.3308596165739
L134542516L
tp727
sL134531954L
(F175.09618320610687
L134531965L
tp728
sL134530222L
(F1.0
L134530231L
tp729
sL134527517L
(F1.160430345140202
L134527524L
tp730
sL134536368L
(F2.0
L134536373L
tp731
sL134538099L
(F4.0
L134538104L
tp732
sL134542516L
(F25.3308596165739
L134542533L
tp733
sL134536373L
(F2.0
L134536397L
tp734
sL134538422L
(F4.0
L134538427L
tp735
sL134530231L
(F2.0
L134530236L
tp736
sL134540473L
(F2.0
L134540496L
tp737
sL134538427L
(F1.0
L134538471L
tp738
sL134530236L
(F2.0
L134530241L
tp739
sL134543221L
(F1.0
L134543226L
tp740
sL134530241L
(F1.0
L134530248L
tp741
sL134532290L
(F7.786665806671722
L134532299L
tp742
sL134538908L
(F4.0
L134538913L
tp743
sL134542533L
(F3.7529778266446763
L134542547L
tp744
sL134515910L
(F1.0
L134515915L
tp745
sL134530248L
(F1.0
L134530274L
tp746
sL134532299L
(F5.191110537781148
L134532304L
tp747
sL134536397L
(F1.0
L134536417L
tp748
sL134540496L
(F1.3333333333333333
L134540503L
tp749
sL134542547L
(F1.9362768270776212
L134542555L
tp750
sL134539470L
(F2.6666666666666665
L134539493L
tp751
sL134540503L
(F4.0
L134540508L
tp752
sL134532312L
(F3.4352921090093
L134532331L
tp753
sL134542555L
(F0.9838113080655234
L134542560L
tp754
sL134540508L
(F1.0
L134540552L
tp755
sL134529573L
(F1.0
L134529575L
tp756
sL134542560L
(F1.0
L134542588L
tp757
sL134532304L
(F1.9466664516679304
L134532312L
tp758
sL134530274L
(F2.0
L134530279L
tp759
sL134520035L
(F6.4
L134520041L
tp760
sL134531333L
(F175.09618320610687
L134531344L
tp761
sL134538471L
(F2.0
L134538494L
tp762
sL134520041L
(F12.8
L134520051L
tp763
sL134532331L
(F6.8705842180186
L134532335L
tp764
sL134530284L
(F1.0
L134530376L
tp765
sL134532335L
(F3.4352921090093
L134532364L
tp766
sL134541523L
(F2.0
L134541546L
tp767
sL134534430L
(F1.0
L134534465L
tp768
sL134539817L
(F1.7777777777777777
L134539824L
tp769
sL134529697L
(F5.333333333333333
L134529748L
tp770
sL134542588L
(F2.0
L134542595L
tp771
sL134518465L
(F0.6666666666666666
L134518477L
tp772
sL134538494L
(F1.3333333333333333
L134538501L
tp773
sL134540404L
(F2.424242424242424
L134540416L
tp774
sL134538795L
(F2.0
L134538818L
tp775
sL134531010L
(F7.466666666666667
L134531026L
tp776
sL134538501L
(F4.0
L134538506L
tp777
sL134536454L
(F2.0
L134536472L
tp778
sL134540552L
(F2.0
L134540575L
tp779
sL134532652L
(F0.5949674082489682
L134532663L
tp780
sL134538506L
(F1.0
L134538554L
tp781
sL134526697L
(F8.284789644012944
L134526720L
tp782
sL134526220L
(F1.3617021276595744
L134526261L
tp783
sL134542605L
(F1.3333333333333333
L134542626L
tp784
sL134532366L
(F0.4186977029454285
L134532372L
tp785
sL134539139L
(F2.0
L134539162L
tp786
sL134532372L
(F0.837395405890857
L134532382L
tp787
sL134536472L
(F4.0
L134536477L
tp788
sL134536068L
(F0.6666666666666666
L134536074L
tp789
sL134541155L
(F1.0
L134541199L
tp790
sL134536477L
(F4.0
L134536495L
tp791
sL134532382L
(F1.674790811781714
L134532397L
tp792
sL134524191L
(F128.0
L134524246L
tp793
sL134519344L
(F4.142394822006472
L134519349L
tp794
sL134542626L
(F2.6666666666666665
L134542636L
tp795
sL134540582L
(F4.0
L134540587L
tp796
sL134520369L
(F1.6
L134520391L
tp797
sL134540587L
(F1.0
L134540634L
tp798
sL134542636L
(F5.333333333333333
L134542649L
tp799
sL134532397L
(F0.69243494536014
L134532408L
tp800
sL134536495L
(F1.3333333333333333
L134536527L
tp801
sL134520112L
(F0.4
L134520153L
tp802
sL134534024L
(F1.0
L134534053L
tp803
sL134533342L
(F1.0
L134533350L
tp804
sL134528905L
(F2.0722714797060573
L134528915L
tp805
sL134521993L
(F4.0
L134522003L
tp806
sL134542649L
(F2.1333333333333333
L134542676L
tp807
sL134538554L
(F2.0
L134538577L
tp808
sL134536074L
(F1.3333333333333333
L134536103L
tp809
sL134532414L
(F1.3385277222106808
L134532425L
tp810
sL134519349L
(F2.071197411003236
L134519390L
tp811
sL134534465L
(F1.0
L134534489L
tp812
sL134521857L
(F1.4545454545454546
L134521878L
tp813
sL134528325L
(F1.0361357398530286
L134528366L
tp814
sL134520033L
(F12.8
L134520035L
tp815
sL134530376L
(F1.0
L134530388L
tp816
sL134532425L
(F2.6770554444213617
L134532431L
tp817
sL134532663L
(F0.3966449388326455
L134532669L
tp818
sL134526284L
(F1.8156028368794326
L134526291L
tp819
sL134518095L
(F1.0
L134518106L
tp820
sL134538577L
(F1.3333333333333333
L134538584L
tp821
sL134526291L
(F5.446808510638298
L134526296L
tp822
sL134530388L
(F2.0
L134530395L
tp823
sL134524246L
(F256.0
L134524252L
tp824
sL134538584L
(F4.0
L134538589L
tp825
sL134534489L
(F1.0
L134534516L
tp826
sL134518106L
(F1.0
L134518135L
tp827
sL134530395L
(F1.0
L134530418L
tp828
sL134532444L
(F10.708221777685447
L134532455L
tp829
sL134521792L
(F4.0
L134521820L
tp830
sL134520153L
(F0.8
L134520169L
tp831
sL134532851L
(F1.855072463768116
L134532857L
tp832
sL134536549L
(F1.0
L134536578L
tp833
sL134532455L
(F5.354110888842723
L134532467L
tp834
sL134542908L
(F1.0
L134542921L
tp835
sL134541976L
(F4.0
L134541988L
tp836
sL134530279L
(F2.0
L134530284L
tp837
sL134528366L
(F2.0722714797060573
L134528389L
tp838
sL134531304L
(F21.88702290076336
L134531314L
tp839
sL134530418L
(F1.0
L134530430L
tp840
sL134532467L
(F10.708221777685447
L134532487L
tp841
sL134534516L
(F1.0
L134534549L
tp842
sL138554880L
(F1.0
L138554884L
tp843
sL134518135L
(F2.0
L134518166L
tp844
sL134540664L
(F4.0
L134540669L
tp845
sL134540180L
(F16.0
L134540187L
tp846
sL134540748L
(F1.0
L134540796L
tp847
sL134542716L
(F0.6666666666666666
L134542726L
tp848
sL134540669L
(F1.0
L134540713L
tp849
sL134530430L
(F2.0
L134530437L
tp850
sL134528576L
(F1.3815143198040383
L134528583L
tp851
sL134536578L
(F2.0
L134536584L
tp852
sL138554756L
(F1.0
L138554760L
tp853
sL134530437L
(F1.0
L134530452L
tp854
sL134542726L
(F0.8205128205128205
L134542736L
tp855
sL134532487L
(F5.354110888842723
L134532499L
tp856
sL134536584L
(F4.0
L134536589L
tp857
sL134538633L
(F2.0
L134538656L
tp858
sL134530452L
(F2.0
L134530458L
tp859
sL138554764L
(F1.0
L138554768L
tp860
sL134536589L
(F1.3333333333333333
L134536594L
tp861
sL134519021L
(F1.8181818181818181
L134519033L
tp862
sL138554768L
(F1.0
L138554772L
tp863
sL134528401L
(F1.0361357398530286
L134528461L
tp864
sL134536594L
(F1.0
L134536606L
tp865
sL134532499L
(F10.708221777685447
L134532522L
tp866
sL138554772L
(F1.0
L138554776L
tp867
sL134534549L
(F1.0
L134534695L
tp868
sL134518166L
(F4.0
L134518211L
tp869
sL134542743L
(F0.8205128205128205
L134542748L
tp870
sL138554776L
(F1.0
L138554780L
tp871
sL134522436L
(F8.0
L134522446L
tp872
sL134530458L
(F1.3333333333333333
L134530463L
tp873
sL138554780L
(F1.0
L138554784L
tp874
sL134521519L
(F1.0
L134521535L
tp875
sL134536606L
(F2.0
L134536612L
tp876
sL134530463L
(F4.0
L134530483L
tp877
sL138554784L
(F1.0
L138554788L
tp878
sL134543600L
(F8.0
L134543606L
tp879
sL134521973L
(F2.0
L134521983L
tp880
sL134536612L
(F4.0
L134536633L
tp881
sL134542757L
(F2.0
L134542763L
tp882
sL134541553L
(F4.0
L134541558L
tp883
sL138554792L
(F1.0
L138554796L
tp884
sL134540713L
(F2.0
L134540736L
tp885
sL134532522L
(F5.354110888842723
L134532541L
tp886
sL134542763L
(F4.0
L134542770L
tp887
sL138554796L
(F1.0
L138554800L
tp888
sL134532431L
(F5.354110888842723
L134532436L
tp889
sL138554800L
(F1.0
L138554804L
tp890
sL134542770L
(F1.3333333333333333
L134542775L
tp891
sL134520051L
(F6.4
L134520102L
tp892
sL138554804L
(F1.0
L138554808L
tp893
sL134537118L
(F1.3333333333333333
L134537140L
tp894
sL134542775L
(F1.0
L134542780L
tp895
sL138554808L
(F1.0
L138554812L
tp896
sL134536633L
(F1.3333333333333333
L134536659L
tp897
sL134520251L
(F3.2
L134520275L
tp898
sL138554812L
(F1.0
L138554816L
tp899
sL134532541L
(F0.8923518148071206
L134532547L
tp900
sL134540736L
(F1.3333333333333333
L134540743L
tp901
sL134532547L
(F1.7847036296142411
L134532555L
tp902
sL138554820L
(F1.0
L138554824L
tp903
sL134542789L
(F2.0
L134542795L
tp904
sL134540743L
(F4.0
L134540748L
tp905
sL138554824L
(F1.0
L138554828L
tp906
sL134538092L
(F1.3333333333333333
L134538099L
tp907
sL134532555L
(F3.5694072592284822
L134532566L
tp908
sL138554828L
(F1.0
L138554832L
tp909
sL134528461L
(F2.0722714797060573
L134528484L
tp910
sL134522318L
(F8.0
L134522411L
tp911
sL134518223L
(F1.3333333333333333
L134518262L
tp912
sL138554832L
(F1.0
L138554836L
tp913
sL134530513L
(F2.0
L134530518L
tp914
sL134526418L
(F2.723404255319149
L134526429L
tp915
sL134536659L
(F2.6666666666666665
L134536665L
tp916
sL138554836L
(F1.0
L138554840L
tp917
sL134522446L
(F16.0
L134522725L
tp918
sL134532566L
(F1.7847036296142411
L134532574L
tp919
sL138554840L
(F1.0
L138554844L
tp920
sL134536665L
(F5.333333333333333
L134536670L
tp921
sL134520282L
(F1.6
L134520305L
tp922
sL134536783L
(F1.0
L134536823L
tp923
sL138554844L
(F1.0
L138554848L
tp924
sL134526429L
(F5.446808510638298
L134526615L
tp925
sL134532574L
(F0.6408953579959502
L134532585L
tp926
sL138554848L
(F1.0
L138554852L
tp927
sL134542817L
(F2.2857142857142856
L134542824L
tp928
sL138555020L
(F1.0
L138555024L
tp929
sL134536675L
(F1.0
L134536702L
tp930
sL138554852L
(F1.0
L138554856L
tp931
sL134541222L
(F1.3333333333333333
L134541229L
tp932
sL138554856L
(F1.0
L138554860L
tp933
sL134532585L
(F1.2817907159919004
L134532591L
tp934
sL134536103L
(F0.8888888888888888
L134536135L
tp935
sL138554860L
(F1.0
L138554864L
tp936
sL134542829L
(F1.0
L134542834L
tp937
sL134533373L
(F1.3333333333333333
L134533407L
tp938
sL138554864L
(F1.0
L138554868L
tp939
sL134520305L
(F3.2
L134520315L
tp940
sL134542834L
(F1.0
L134542848L
tp941
sL134538739L
(F1.3333333333333333
L134538746L
tp942
sL138554868L
(F1.0
L138554872L
tp943
sL134538980L
(F1.3333333333333333
L134538987L
tp944
sL134524406L
(F64.0
L134524412L
tp945
sL134532599L
(F2.563581431983801
L134532613L
tp946
sL138554872L
(F1.0
L138554876L
tp947
sL134538746L
(F4.0
L134538751L
tp948
sL134520315L
(F3.2
L134520343L
tp949
sL134540796L
(F2.0
L134540819L
tp950
sL134536702L
(F1.0
L134536741L
tp951
sL134538751L
(F1.0
L134538795L
tp952
sL134542848L
(F2.0
L134542859L
tp953
sL134516992L
(F1.0
L134517007L
tp954
sL134518517L
(F0.9523809523809523
L134518524L
tp955
sL138554884L
(F1.0
L138554888L
tp956
sL134532613L
(F1.2817907159919004
L134532640L
tp957
sL134537328L
(F85.33333333333333
L134537344L
tp958
sL134532843L
(F6.492753623188406
L134532849L
tp959
sL138554888L
(F1.0
L138554892L
tp960
sL134522857L
(F4.0
L134522868L
tp961
sL134542859L
(F4.0
L134542866L
tp962
sL138554892L
(F1.0
L138554896L
tp963
sL134524430L
(F128.0
L134524443L
tp964
sL134539181L
(F2.0
L134539184L
tp965
sL138554896L
(F1.0
L138554900L
tp966
sL134527576L
(F3.481291035420606
L134527669L
tp967
sL134518290L
(F1.3333333333333333
L134518299L
tp968
sL134542595L
(F1.0
L134542605L
tp969
sL134518288L
(F2.6666666666666665
L134518290L
tp970
sL134542871L
(F1.0
L134542876L
tp971
sL138554904L
(F1.0
L138554908L
tp972
sL134540826L
(F4.0
L134540831L
tp973
sL134524443L
(F256.0
L134524453L
tp974
sL138554908L
(F1.0
L138554912L
tp975
sL134524412L
(F128.0
L134524430L
tp976
sL134536049L
(F1.0
L134536064L
tp977
sL138554912L
(F1.0
L138554916L
tp978
sL134532641L
(F0.2974837041244841
L134532652L
tp979
sL134530686L
(F8.0
L134530693L
tp980
sL138554916L
(F1.0
L138554920L
tp981
sL134542885L
(F2.0
L134542891L
tp982
sL134534695L
(F1.0
L134534722L
tp983
sL138554920L
(F1.0
L138554924L
tp984
sL134528553L
(F2.0722714797060573
L134528576L
tp985
sL134542891L
(F1.3333333333333333
L134542898L
tp986
sL138554924L
(F1.0
L138554928L
tp987
sL134524453L
(F512.0
L134524471L
tp988
sL134519478L
(F4.142394822006472
L134519501L
tp989
sL138554928L
(F1.0
L138554932L
tp990
sL134530609L
(F1.0
L134530640L
tp991
sL134542898L
(F4.0
L134542903L
tp992
sL138554932L
(F1.0
L138554936L
tp993
sL134542903L
(F1.0
L134542908L
tp994
sL138554936L
(F1.0
L138554940L
tp995
sL134522426L
(F4.0
L134522436L
tp996
sL134531890L
(F10.334114254820689
L134531896L
tp997
sL138554940L
(F1.0
L138554944L
tp998
sL134532669L
(F0.793289877665291
L134532713L
tp999
sL134543275L
(F1.0
L134543280L
tp1000
sL138554944L
(F1.0
L138554948L
tp1001
sL134522411L
(F2.0
L134522426L
tp1002
sL134538818L
(F1.3333333333333333
L134538825L
tp1003
sL138554948L
(F1.0
L138554952L
tp1004
sL134536773L
(F2.0
L134536778L
tp1005
sL134528583L
(F4.144542959412115
L134528588L
tp1006
sL138554952L
(F1.0
L138554956L
tp1007
sL134542921L
(F2.0
L134542927L
tp1008
sL134517774L
(F1.7777777777777777
L134517779L
tp1009
sL134524491L
(F1024.0
L134524881L
tp1010
sL138554956L
(F1.0
L138554960L
tp1011
sL134540898L
(F1.3333333333333333
L134540905L
tp1012
sL134538830L
(F1.0
L134538878L
tp1013
sL134542927L
(F1.3333333333333333
L134542934L
tp1014
sL138554960L
(F1.0
L138554964L
tp1015
sL134537551L
(F780.1904761904761
L134537556L
tp1016
sL134518371L
(F2.6666666666666665
L134518404L
tp1017
sL138554964L
(F1.0
L138554968L
tp1018
sL134530645L
(F2.0
L134530676L
tp1019
sL134542934L
(F4.0
L134542939L
tp1020
sL134518320L
(F5.333333333333333
L134518360L
tp1021
sL134518360L
(F2.6666666666666665
L134518371L
tp1022
sL138554980L
(F1.0
L138554984L
tp1023
sL134532232L
(F2.403291197994184
L134532237L
tp1024
sL134542939L
(F1.0
L134542944L
tp1025
sL138554972L
(F1.0
L138554976L
tp1026
sL134531002L
(F3.7333333333333334
L134531010L
tp1027
sL138554976L
(F1.0
L138554980L
tp1028
sL134535440L
(F20.0
L134535556L
tp1029
sL134532364L
(F6.8705842180186
L134532366L
tp1030
sL134534755L
(F1.0
L134534785L
tp1031
sL134522003L
(F8.0
L134522282L
tp1032
sL134539734L
(F1.7777777777777777
L134539741L
tp1033
sL134540905L
(F4.0
L134540910L
tp1034
sL134531687L
(F5603.07786259542
L134531699L
tp1035
sL138554988L
(F1.0
L138554992L
tp1036
sL134540910L
(F1.0
L134540958L
tp1037
sL134542959L
(F4.0
L134542966L
tp1038
sL138554992L
(F1.0
L138554996L
tp1039
sL138554984L
(F1.0
L138554988L
tp1040
sL134541712L
(F1.0
L134541739L
tp1041
sL138554996L
(F1.0
L138555000L
tp1042
sL134532726L
(F1.1885259492621456
L134532732L
tp1043
sL134532713L
(F0.42535898055225496
L134532724L
tp1044
sL138555000L
(F1.0
L138555004L
tp1045
sL134531717L
(F0.7945546183556471
L134531718L
tp1046
sL134542971L
(F1.0
L134542976L
tp1047
sL134528636L
(F2.0722714797060573
L134528659L
tp1048
sL134538878L
(F2.0
L134538901L
tp1049
sL138555008L
(F1.0
L138555012L
tp1050
sL134534785L
(F1.0
L134534812L
tp1051
sL134533739L
(F2.6666666666666665
L134533860L
tp1052
sL138555012L
(F1.0
L138555016L
tp1053
sL134530693L
(F8.0
L134530698L
tp1054
sL134540875L
(F2.0
L134540898L
tp1055
sL138555016L
(F1.0
L138555020L
tp1056
sL134532745L
(F4.754103797048582
L134532756L
tp1057
sL134530698L
(F4.0
L134530700L
tp1058
sL134540575L
(F1.3333333333333333
L134540582L
tp1059
sL134537154L
(F4.0
L134537185L
tp1060
sL134520463L
(F3.2
L134520486L
tp1061
sL138555024L
(F1.0
L138555028L
tp1062
sL134542736L
(F1.641025641025641
L134542743L
tp1063
sL134528659L
(F1.3815143198040383
L134528666L
tp1064
sL138555028L
(F1.0
L138555032L
tp1065
sL134538901L
(F1.3333333333333333
L134538908L
tp1066
sL134542998L
(F1.3333333333333333
L134543003L
tp1067
sL134526615L
(F0.9516728624535316
L134526626L
tp1068
sL134532760L
(F0.6641380069142437
L134532768L
tp1069
sL134528666L
(F4.144542959412115
L134528671L
tp1070
sL134543003L
(F1.0
L134543008L
tp1071
sL134534812L
(F1.0
L134534839L
tp1072
sL134540958L
(F2.0
L134540981L
tp1073
sL134528671L
(F1.0361357398530286
L134528732L
tp1074
sL138555040L
(F1.0
L138555044L
tp1075
sL134538913L
(F1.0
L134538957L
tp1076
sL134526626L
(F1.903345724907063
L134526628L
tp1077
sL134530723L
(F8.0
L134530733L
tp1078
sL138555044L
(F1.0
L138555048L
tp1079
sL134518726L
(F0.9302325581395348
L134518744L
tp1080
sL134520486L
(F6.4
L134520528L
tp1081
sL134540657L
(F1.3333333333333333
L134540664L
tp1082
sL138555048L
(F1.0
L138555052L
tp1083
sL134543017L
(F2.0
L134543023L
tp1084
sL134538183L
(F1.0
L134538230L
tp1085
sL138555052L
(F1.0
L138555056L
tp1086
sL134528484L
(F1.3815143198040383
L134528491L
tp1087
sL134532782L
(F0.6641380069142437
L134532786L
tp1088
sL134543023L
(F4.0
L134543030L
tp1089
sL138555056L
(F1.0
L138555060L
tp1090
sL134532786L
(F1.9553312647048795
L134532790L
tp1091
sL138555060L
(F1.0
L138555064L
tp1092
sL134540981L
(F1.3333333333333333
L134540988L
tp1093
sL134543030L
(F1.3333333333333333
L134543035L
tp1094
sL134534839L
(F1.0
L134534863L
tp1095
sL138555064L
(F1.0
L138555068L
tp1096
sL134530676L
(F4.0
L134530686L
tp1097
sL134530747L
(F8.0
L134530753L
tp1098
sL134540988L
(F4.0
L134540993L
tp1099
sL138555132L
(F1.0
L138555136L
tp1100
sL134521461L
(F1.0
L134521463L
tp1101
sL138555072L
(F1.0
L138555076L
tp1102
sL134530753L
(F16.0
L134530760L
tp1103
sL134526658L
(F1.5533980582524272
L134526669L
tp1104
sL138555076L
(F1.0
L138555080L
tp1105
sL134542966L
(F1.3333333333333333
L134542971L
tp1106
sL138555080L
(F1.0
L138555084L
tp1107
sL134543049L
(F2.0
L134543055L
tp1108
sL134536823L
(F1.0
L134536863L
tp1109
sL138555084L
(F1.0
L138555088L
tp1110
sL134526669L
(F3.1067961165048543
L134526674L
tp1111
sL134532814L
(F1.6231884057971016
L134532823L
tp1112
sL134534863L
(F1.0
L134534878L
tp1113
sL138555088L
(F1.0
L138555092L
tp1114
sL134526674L
(F1.035598705501618
L134526681L
tp1115
sL134518262L
(F2.6666666666666665
L134518272L
tp1116
sL138555092L
(F1.0
L138555096L
tp1117
sL134533600L
(F8.0
L134533605L
tp1118
sL134543062L
(F1.3333333333333333
L134543067L
tp1119
sL134532823L
(F0.8115942028985508
L134532831L
tp1120
sL138555096L
(F1.0
L138555100L
tp1121
sL134526681L
(F2.071197411003236
L134526691L
tp1122
sL134543067L
(F1.0
L134543072L
tp1123
sL134531942L
(F87.54809160305344
L134531954L
tp1124
sL134519893L
(F0.8
L134519901L
tp1125
sL134532831L
(F1.6231884057971016
L134532837L
tp1126
sL138555104L
(F1.0
L138555108L
tp1127
sL134526691L
(F4.142394822006472
L134526697L
tp1128
sL138555108L
(F1.0
L138555112L
tp1129
sL134520102L
(F6.4
L134520112L
tp1130
sL138555112L
(F1.0
L138555116L
tp1131
sL134532732L
(F2.377051898524291
L134532737L
tp1132
sL134520554L
(F1.6
L134520570L
tp1133
sL134538987L
(F4.0
L134538992L
tp1134
sL138555116L
(F1.0
L138555120L
tp1135
sL134541037L
(F2.0
L134541060L
tp1136
sL134542953L
(F2.0
L134542959L
tp1137
sL138555120L
(F1.0
L138555124L
tp1138
sL134532849L
(F12.985507246376812
L134532851L
tp1139
sL134528755L
(F1.3815143198040383
L134528762L
tp1140
sL138555124L
(F1.0
L138555128L
tp1141
sL134543093L
(F8.0
L134543099L
tp1142
sL134517033L
(F1.0
L134517035L
tp1143
sL138555128L
(F1.0
L138555132L
tp1144
sL134542944L
(F1.0
L134542953L
tp1145
sL134528762L
(F4.144542959412115
L134528767L
tp1146
sL134543099L
(F5.333333333333333
L134543110L
tp1147
sL134534908L
(F2.0
L134534930L
tp1148
sL134536957L
(F2.0
L134536961L
tp1149
sL134528767L
(F1.0361357398530286
L134528825L
tp1150
sL138555136L
(F1.0
L138555140L
tp1151
sL134542976L
(F1.0
L134542985L
tp1152
sL134541060L
(F1.3333333333333333
L134541067L
tp1153
sL134540246L
(F1.0
L134540258L
tp1154
sL134543110L
(F10.666666666666666
L134543121L
tp1155
sL134532737L
(F2.377051898524291
L134532745L
tp1156
sL138555144L
(F1.0
L138555148L
tp1157
sL134543081L
(F2.0
L134543087L
tp1158
sL138555148L
(F1.0
L138555152L
tp1159
sL134532878L
(F6.3015384615384615
L134532894L
tp1160
sL134532920L
(F2.7713125845737485
L134532931L
tp1161
sL138555152L
(F1.0
L138555156L
tp1162
sL134527669L
(F0.7343495780089552
L134527679L
tp1163
sL134534930L
(F1.0
L134535009L
tp1164
sL138555156L
(F1.0
L138555160L
tp1165
sL134530837L
(F2.0
L134530852L
tp1166
sL134520598L
(F1.3333333333333333
L134520850L
tp1167
sL134539031L
(F2.0
L134539050L
tp1168
sL138555160L
(F1.0
L138555164L
tp1169
sL134518404L
(F5.333333333333333
L134518444L
tp1170
sL138555164L
(F1.0
L138555168L
tp1171
sL134543133L
(F1.0
L134543138L
tp1172
sL134532894L
(F3.1507692307692308
L134532902L
tp1173
sL134522282L
(F2.0
L134522312L
tp1174
sL138555168L
(F1.0
L138555172L
tp1175
sL134533661L
(F16.0
L134533680L
tp1176
sL134543138L
(F1.0
L134543147L
tp1177
sL134534107L
(F1.0
L134534134L
tp1178
sL134530852L
(F14.0
L134530863L
tp1179
sL134532902L
(F1.5753846153846154
L134532912L
tp1180
sL138555176L
(F1.0
L138555180L
tp1181
sL134539050L
(F2.0
L134539068L
tp1182
sL134517383L
(F1.0
L134517430L
tp1183
sL138555180L
(F1.0
L138555184L
tp1184
sL134530863L
(F7.0
L134530874L
tp1185
sL138555184L
(F1.0
L138555188L
tp1186
sL134531830L
(F2.9293011851246424
L134531835L
tp1187
sL138555188L
(F1.0
L138555192L
tp1188
sL134537354L
(F10.666666666666666
L134537365L
tp1189
sL134543159L
(F8.0
L134543165L
tp1190
sL138555192L
(F1.0
L138555196L
tp1191
sL134528825L
(F2.0722714797060573
L134528848L
tp1192
sL134530874L
(F14.0
L134530882L
tp1193
sL138555196L
(F1.0
L138555200L
tp1194
sL134543165L
(F16.0
L134543171L
tp1195
sL134543760L
(F1.0
L134543762L
tp1196
sL134526261L
(F2.723404255319149
L134526284L
tp1197
sL134541120L
(F2.0
L134541143L
tp1198
sL134530882L
(F28.0
L134530893L
tp1199
sL134543171L
(F32.0
L134543177L
tp1200
sL138555204L
(F1.0
L138555208L
tp1201
sL134533430L
(F2.6666666666666665
L134533468L
tp1202
sL134533331L
(F2.0
L134533342L
tp1203
sL134530017L
(F4.0
L134530020L
tp1204
sL134537032L
(F1.0
L134537040L
tp1205
sL134543177L
(F1.0158730158730158
L134543184L
tp1206
sL134537527L
(F195.04761904761904
L134537546L
tp1207
sL138555212L
(F1.0
L138555216L
tp1208
sL134521397L
(F2.0
L134521427L
tp1209
sL138555216L
(F1.0
L138555220L
tp1210
sL134532408L
(F0.6692638611053404
L134532414L
tp1211
sL134530740L
(F16.0
L134530747L
tp1212
sL138555220L
(F1.0
L138555224L
tp1213
sL134543189L
(F1.0
L134543194L
tp1214
sL134541143L
(F1.3333333333333333
L134541150L
tp1215
sL138555224L
(F1.0
L138555228L
tp1216
sL134543194L
(F1.0
L134543203L
tp1217
sL134542991L
(F4.0
L134542998L
tp1218
sL138555228L
(F1.0
L138555232L
tp1219
sL134541150L
(F4.0
L134541155L
tp1220
sL134537055L
(F1.3333333333333333
L134537075L
tp1221
sL138555232L
(F1.0
L138555236L
tp1222
sL134535009L
(F2.0
L134535024L
tp1223
sL138554760L
(F1.0
L138554764L
tp1224
sL134543203L
(F2.0
L134543209L
tp1225
sL138555236L
(F1.0
L138555240L
tp1226
sL134522725L
(F4.0
L134522758L
tp1227
sL134539111L
(F2.6666666666666665
L134539129L
tp1228
sL138555240L
(F1.0
L138555244L
tp1229
sL134543209L
(F4.0
L134543216L
tp1230
sL134539129L
(F5.333333333333333
L134539139L
tp1231
sL134543216L
(F1.3333333333333333
L134543221L
tp1232
sL134520418L
(F3.2
L134520444L
tp1233
sL134532978L
(F0.5755655545999258
L134532983L
tp1234
sL134537075L
(F0.6666666666666666
L134537088L
tp1235
sL134535029L
(F20.0
L134535071L
tp1236
sL134532983L
(F1.0
L134532997L
tp1237
sL134532756L
(F2.377051898524291
L134532760L
tp1238
sL134543226L
(F1.0
L134543235L
tp1239
sL134530939L
(F28.0
L134530983L
tp1240
sL134543153L
(F4.0
L134543159L
tp1241
sL134537088L
(F1.3333333333333333
L134537093L
tp1242
sL134520444L
(F1.6
L134520463L
tp1243
sL134543235L
(F2.0
L134543241L
tp1244
sL134537093L
(F1.0
L134537112L
tp1245
sL134522758L
(F8.0
L134522764L
tp1246
sL134541072L
(F1.0
L134541120L
tp1247
sL134542676L
(F3.5555555555555554
L134542716L
tp1248
sL134543241L
(F1.3333333333333333
L134543252L
tp1249
sL134518603L
(F3.6363636363636362
L134518612L
tp1250
sL134522764L
(F16.0
L134522857L
tp1251
sL134540831L
(F1.0
L134540875L
tp1252
sL134541199L
(F2.0
L134541222L
tp1253
sL138555032L
(F1.0
L138555036L
tp1254
sL134542824L
(F1.7777777777777777
L134542829L
tp1255
sL134528915L
(F4.144542959412115
L134529359L
tp1256
sL134543252L
(F2.6666666666666665
L134543263L
tp1257
sL134537198L
(F1.3333333333333333
L134537228L
tp1258
sL134537112L
(F2.0
L134537118L
tp1259
sL134520391L
(F3.2
L134520418L
tp1260
sL134538957L
(F2.0
L134538980L
tp1261
sL134543263L
(F2.2857142857142856
L134543270L
tp1262
sL134526651L
(F0.7766990291262136
L134526658L
tp1263
sL134543270L
(F1.7777777777777777
L134543275L
tp1264
sL134530983L
(F14.0
L134530994L
tp1265
sL138555036L
(F1.0
L138555040L
tp1266
sL134532857L
(F3.710144927536232
L134532868L
tp1267
sL134541229L
(F4.0
L134541234L
tp1268
sL134543632L
(F21.333333333333332
L134543641L
tp1269
sL134536417L
(F2.0
L134536423L
tp1270
sL134543280L
(F1.0
L134543289L
tp1271
sL134541234L
(F1.0
L134541282L
tp1272
sL134538148L
(F2.0
L134538171L
tp1273
sL134537140L
(F4.0
L134537146L
tp1274
sL134532724L
(F0.8507179611045099
L134532726L
tp1275
sL134539192L
(F1.0
L134539212L
tp1276
sL134543289L
(F2.0
L134543295L
tp1277
sL134537146L
(F8.0
L134537151L
tp1278
sL134536863L
(F1.0
L134536914L
tp1279
sL134543295L
(F4.0
L134543303L
tp1280
sL134532768L
(F1.3282760138284875
L134532782L
tp1281
sL134542866L
(F1.3333333333333333
L134542871L
tp1282
sL134536741L
(F1.0
L134536773L
tp1283
sL134538230L
(F2.0
L134538253L
tp1284
sL134538332L
(F1.3333333333333333
L134538339L
tp1285
sL134543303L
(F1.3333333333333333
L134543306L
tp1286
sL138554968L
(F1.0
L138554972L
tp1287
sL134543306L
(F1.0
L134543308L
tp1288
sL134528389L
(F1.3815143198040383
L134528396L
tp1289
sL134543308L
(F1.0
L134543317L
tp1290
sL134519219L
(F1.9047619047619047
L134519259L
tp1291
sL138554900L
(F1.0
L138554904L
tp1292
sL134532790L
(F0.8115942028985508
L134532796L
tp1293
sL134524881L
(F256.0
L134524925L
tp1294
sL134531026L
(F3.7333333333333334
L134531034L
tp1295
sL134543317L
(F2.0
L134543323L
tp1296
sL134541305L
(F1.3333333333333333
L134541312L
tp1297
sL134518744L
(F1.8604651162790695
L134518762L
tp1298
sL134526628L
(F1.903345724907063
L134526651L
tp1299
sL134531034L
(F1.8666666666666667
L134531044L
tp1300
sL134543323L
(F4.0
L134543331L
tp1301
sL134530640L
(F2.0
L134530645L
tp1302
sL134539229L
(F1.0
L134539231L
tp1303
sL134518482L
(F1.0
L134518517L
tp1304
sL134539231L
(F1.0
L134539246L
tp1305
sL134543147L
(F2.0
L134543153L
tp1306
sL134541282L
(F2.0
L134541305L
tp1307
sL134543331L
(F1.3333333333333333
L134543334L
tp1308
sL134531044L
(F3.294117647058824
L134531073L
tp1309
sL134543334L
(F1.0
L134543336L
tp1310
sL134543087L
(F4.0
L134543093L
tp1311
sL138555140L
(F1.0
L138555144L
tp1312
sL134524471L
(F256.0
L134524481L
tp1313
sL134518762L
(F3.720930232558139
L134518775L
tp1314
sL134539246L
(F2.0
L134539268L
tp1315
sL134540285L
(F2.0
L134540292L
tp1316
sL134543344L
(F1.0
L134543379L
tp1317
sL134540279L
(F1.0
L134540285L
tp1318
sL134538656L
(F1.3333333333333333
L134538663L
tp1319
sL134522868L
(F2.6666666666666665
L134522878L
tp1320
sL134518775L
(F1.0631229235880397
L134518791L
tp1321
sL134541652L
(F4.0
L134541658L
tp1322
sL134542748L
(F1.0
L134542757L
tp1323
sL134540634L
(F2.0
L134540657L
tp1324
sL134524925L
(F512.0
L134524943L
tp1325
sL134522878L
(F8.0
L134522891L
tp1326
s.