(lp0
c__builtin__
set
p1
((lp2
S'\x03\xe8'
p3
aS'\x00\xef'
p4
aS'\x00\xff\xff\xff\xff'
p5
aS'\x00\xfd'
p6
atp7
Rp8
ag1
((lp9
S'A'
p10
aS'\x00'
p11
aS'\x03'
p12
aS'%'
p13
aS'@'
p14
aS'\xe8'
p15
aS'\x06'
p16
aS'M'
p17
aS'\xef'
p18
aS'E'
p19
aS'Z'
p20
aS'\xfd'
p21
aS'\xff'
p22
atp23
Rp24
a.