(dp0
L134514176L
(F1.0
L134514176L
tp1
sL134513793L
(F2.0
L134513798L
tp2
sL134514411L
(F2.0
L134514449L
tp3
sL134520964L
(F1.0
L134520968L
tp4
sL134514268L
(F1.0
L134514270L
tp5
sL134513798L
(F1.0
L134513803L
tp6
sL134514312L
(F1.3333333333333333
L134514317L
tp7
sL134520960L
(F1.0
L134520964L
tp8
sL134520972L
(F1.0
L134520976L
tp9
sL134514317L
(F1.0
L134514387L
tp10
sL134514064L
(F1.0
L134514098L
tp11
sL134514449L
(F4.0
L134514471L
tp12
sL134515218L
(F2.0
L134515224L
tp13
sL134520980L
(F1.0
L134520984L
tp14
sL134515168L
(F1.0
L134515218L
tp15
sL134514200L
(F1.0
L134514201L
tp16
sL134514201L
(F2.0
L134514210L
tp17
sL134520988L
(F1.0
L134520992L
tp18
sL134515162L
(F4.0
L134515164L
tp19
sL134520992L
(F1.0
L134520996L
tp20
sL134514210L
(F4.0
L134514231L
tp21
sL134520996L
(F1.0
L134521000L
tp22
sL134514854L
(F128.0
L134514866L
tp23
sL134514471L
(F4.0
L134514615L
tp24
sL134521000L
(F1.0
L134521004L
tp25
sL134514985L
(F68.26666666666667
L134515064L
tp26
sL134521004L
(F1.0
L134521008L
tp27
sL134514290L
(F4.0
L134514311L
tp28
sL134521008L
(F1.0
L134521012L
tp29
sL134520968L
(F1.0
L134520972L
tp30
sL134514866L
(F256.0
L134514878L
tp31
sL134521012L
(F1.0
L134521016L
tp32
sL134514615L
(F8.0
L134514627L
tp33
sL134521016L
(F1.0
L134521020L
tp34
sL134515257L
(F1.0
L134515265L
tp35
sL134521020L
(F1.0
L134521024L
tp36
sL134514692L
(F5.333333333333333
L134514774L
tp37
sL134514240L
(F1.0
L134514249L
tp38
sL134515296L
(F1.0
L134515344L
tp39
sL134514627L
(F16.0
L134514687L
tp40
sL134515141L
(F2.0
L134515157L
tp41
sL134514112L
(F1.0
L134514116L
tp42
sL134514249L
(F2.0
L134514268L
tp43
sL134514890L
(F1024.0
L134514985L
tp44
sL134515280L
(F1.0
L134515282L
tp45
sL134515064L
(F21.333333333333332
L134515141L
tp46
sL134514387L
(F2.0
L134514411L
tp47
sL134520916L
(F1.0
L134520920L
tp48
sL134515157L
(F4.0
L134515162L
tp49
sL134514774L
(F32.0
L134514790L
tp50
sL134520920L
(F1.0
L134520924L
tp51
sL134520984L
(F1.0
L134520988L
tp52
sL134520924L
(F1.0
L134520928L
tp53
sL134514143L
(F1.0
L134514144L
tp54
sL134520928L
(F1.0
L134520932L
tp55
sL134515344L
(F1.0
L134515364L
tp56
sL134520932L
(F1.0
L134520936L
tp57
sL134521024L
(F1.0
L134521028L
tp58
sL134514790L
(F64.0
L134514854L
tp59
sL134513768L
(F1.0
L134513793L
tp60
sL134514281L
(F2.0
L134514290L
tp61
sL134520976L
(F1.0
L134520980L
tp62
sL134514144L
(F2.0
L134514153L
tp63
sL134520940L
(F1.0
L134520944L
tp64
sL134515224L
(F0.6666666666666666
L134515257L
tp65
sL134520944L
(F1.0
L134520948L
tp66
sL134520936L
(F1.0
L134520940L
tp67
sL134514128L
(F1.0
L134514143L
tp68
sL134520948L
(F1.0
L134520952L
tp69
sL134514878L
(F512.0
L134514890L
tp70
sL134514153L
(F4.0
L134514170L
tp71
sL134520952L
(F1.0
L134520956L
tp72
sL134514272L
(F1.0
L134514281L
tp73
sL134521032L
(F1.0
L134521036L
tp74
sL134520956L
(F1.0
L134520960L
tp75
sL134514687L
(F32.0
L134514692L
tp76
s.