(dp0
L134539264L
(F1.4545454545454546
L134539271L
tp1
sL134522881L
(F0.6139088729016786
L134522913L
tp2
sL134537219L
(F8.0
L134537242L
tp3
sL134541316L
(F2.0
L134541322L
tp4
sL134529030L
(F3.7333333333333334
L134529038L
tp5
sL134539271L
(F3.2
L134539276L
tp6
sL134518792L
(F2.0
L134518800L
tp7
sL134541322L
(F4.0
L134541330L
tp8
sL134539276L
(F1.0
L134539283L
tp9
sL134529038L
(F7.466666666666667
L134529054L
tp10
sL134525613L
(F3.2
L134525627L
tp11
sL134518800L
(F1.0
L134518810L
tp12
sL134541330L
(F1.3333333333333333
L134541333L
tp13
sL134539283L
(F1.0
L134539310L
tp14
sL134541333L
(F1.0
L134541335L
tp15
sL134518810L
(F2.0
L134518818L
tp16
sL134533147L
(F20.0
L134533207L
tp17
sL134529054L
(F3.7333333333333334
L134529062L
tp18
sL134541344L
(F1.0
L134541394L
tp19
sL134522913L
(F0.460431654676259
L134522957L
tp20
sL134518818L
(F1.0
L134518829L
tp21
sL134524963L
(F1.3333333333333333
L134524969L
tp22
sL134529062L
(F1.8666666666666667
L134529072L
tp23
sL134527015L
(F1.686429512516469
L134527022L
tp24
sL134524969L
(F2.6666666666666665
L134525005L
tp25
sL134518829L
(F2.0
L134518837L
tp26
sL134527022L
(F5.059288537549407
L134527027L
tp27
sL134529072L
(F3.294117647058824
L134529101L
tp28
sL134527027L
(F1.2648221343873518
L134527073L
tp29
sL134518837L
(F4.0
L134518861L
tp30
sL134523913L
(F10.158730158730158
L134523929L
tp31
sL134531130L
(F1.0
L134531157L
tp32
sL134524789L
(F1.0666666666666667
L134524791L
tp33
sL134528012L
(F2.0
L134528037L
tp34
sL134518861L
(F2.6666666666666665
L134518868L
tp35
sL134539342L
(F4.0
L134539352L
tp36
sL134535864L
(F24.38095238095238
L134535880L
tp37
sL134541394L
(F2.0
L134541400L
tp38
sL134518868L
(F8.0
L134518873L
tp39
sL134531157L
(F1.0
L134531170L
tp40
sL134533207L
(F20.0
L134533281L
tp41
sL134541400L
(F1.8018018018018016
L134541433L
tp42
sL134518873L
(F2.0
L134518878L
tp43
sL134537307L
(F8.0
L134537330L
tp44
sL134518878L
(F2.0
L134518889L
tp45
sL134539359L
(F2.0
L134539399L
tp46
sL134526992L
(F2.5296442687747036
L134527015L
tp47
sL134531170L
(F2.0
L134531175L
tp48
sL134523579L
(F162.53968253968253
L134523590L
tp49
sL134534555L
(F1.0
L134534577L
tp50
sL134529993L
(F87.54809160305344
L134530005L
tp51
sL134531175L
(F2.0
L134531180L
tp52
sL134524748L
(F0.6666666666666666
L134524773L
tp53
sL134518889L
(F4.0
L134518916L
tp54
sL134529131L
(F28.0
L134529142L
tp55
sL134531180L
(F1.0
L134531359L
tp56
sL134537330L
(F5.333333333333333
L134537337L
tp57
sL134534163L
(F1.0
L134534204L
tp58
sL134540990L
(F4.0
L134540997L
tp59
sL134529142L
(F14.0
L134529146L
tp60
sL134527096L
(F1.686429512516469
L134527103L
tp61
sL134537337L
(F16.0
L134537342L
tp62
sL134529146L
(F7.0
L134529162L
tp63
sL134528704L
(F4.0
L134528714L
tp64
sL134530410L
(F1.674790811781714
L134530425L
tp65
sL134537342L
(F4.0
L134537415L
tp66
sL134527103L
(F5.059288537549407
L134527108L
tp67
sL134525632L
(F1.0
L134525697L
tp68
sL134529387L
(F175.09618320610687
L134529405L
tp69
sL134518916L
(F4.0
L134518924L
tp70
sL134539399L
(F4.0
L134539417L
tp71
sL134522635L
(F44.52173913043478
L134522645L
tp72
sL134529162L
(F14.0
L134529168L
tp73
sL134518924L
(F8.0
L134518948L
tp74
sL134529168L
(F2.0
L134529173L
tp75
sL134529940L
(F43.77404580152672
L134529946L
tp76
sL134529173L
(F1.3658536585365857
L134529185L
tp77
sL134525078L
(F5.333333333333333
L134525132L
tp78
sL134523929L
(F81.26984126984127
L134523952L
tp79
sL134539417L
(F8.0
L134539424L
tp80
sL134537242L
(F5.333333333333333
L134537249L
tp81
sL134524740L
(F14.222222222222221
L134524744L
tp82
sL134522565L
(F5.565217391304348
L134522573L
tp83
sL134539424L
(F2.6666666666666665
L134539429L
tp84
sL134529185L
(F1.6231884057971016
L134529195L
tp85
sL134518948L
(F5.333333333333333
L134518955L
tp86
sL134539429L
(F2.0
L134539469L
tp87
sL134527146L
(F2.5296442687747036
L134527156L
tp88
sL134518955L
(F16.0
L134518960L
tp89
sL134530363L
(F3.4352921090093
L134530392L
tp90
sL134518960L
(F4.0
L134518963L
tp91
sL134529201L
(F6.492753623188406
L134529216L
tp92
sL134518963L
(F1.0
L134518965L
tp93
sL134527156L
(F5.059288537549407
L134527627L
tp94
sL134518965L
(F1.0
L134518999L
tp95
sL134541497L
(F2.0
L134541499L
tp96
sL134525983L
(F1.3333333333333333
L134525989L
tp97
sL134517450L
(F1.0
L134517497L
tp98
sL134525552L
(F5.333333333333333
L134525578L
tp99
sL134529216L
(F12.985507246376812
L134529222L
tp100
sL134518579L
(F2.6666666666666665
L134518581L
tp101
sL134529222L
(F25.971014492753625
L134529244L
tp102
sL134537249L
(F16.0
L134537254L
tp103
sL134536052L
(F195.04761904761904
L134536061L
tp104
sL134522596L
(F11.130434782608695
L134522606L
tp105
sL134525132L
(F1.3333333333333333
L134525136L
tp106
sL134539469L
(F4.0
L134539495L
tp107
sL134532813L
(F1.0
L134532840L
tp108
sL134525136L
(F0.6666666666666666
L134525161L
tp109
sL134534640L
(F4.0
L134534661L
tp110
sL134518999L
(F2.0
L134519011L
tp111
sL134541528L
(F2.0
L134541532L
tp112
sL134523599L
(F650.1587301587301
L134523604L
tp113
sL134529244L
(F8.657004830917876
L134529247L
tp114
sL134537594L
(F2.0
L134537617L
tp115
sL134537438L
(F5.333333333333333
L134537445L
tp116
sL134525989L
(F2.6666666666666665
L134526009L
tp117
sL134538960L
(F1.3333333333333333
L134538967L
tp118
sL134535394L
(F2.0
L134535428L
tp119
sL134529251L
(F12.985507246376812
L134529281L
tp120
sL134537254L
(F4.0
L134537307L
tp121
sL134539495L
(F8.0
L134539506L
tp122
sL134525161L
(F1.3333333333333333
L134525185L
tp123
sL134537450L
(F4.0
L134537495L
tp124
sL134532135L
(F1.0
L134532162L
tp125
sL134519506L
(F2.2857142857142856
L134519545L
tp126
sL134519022L
(F4.0
L134519034L
tp127
sL134539506L
(F4.0
L134539541L
tp128
sL134533369L
(F20.0
L134533468L
tp129
sL134519034L
(F4.0
L134519044L
tp130
sL134541120L
(F7.111111111111111
L134541127L
tp131
sL134525185L
(F1.0
L134525220L
tp132
sL134519044L
(F1.0
L134519048L
tp133
sL134528726L
(F4.0
L134528728L
tp134
sL134529287L
(F51.94202898550725
L134529292L
tp135
sL134519048L
(F2.0
L134519050L
tp136
sL134535433L
(F1.0
L134535462L
tp137
sL134519050L
(F2.0
L134519059L
tp138
sL134529751L
(F21.88702290076336
L134529757L
tp139
sL134529292L
(F51.94202898550725
L134529296L
tp140
sL134529296L
(F0.683969465648855
L134529323L
tp141
sL138555096L
(F1.0
L138555100L
tp142
sL134519059L
(F4.0
L134519089L
tp143
sL134526936L
(F1.686429512516469
L134526943L
tp144
sL134539310L
(F2.0
L134539342L
tp145
sL134524633L
(F2.6666666666666665
L134524667L
tp146
sL134539547L
(F4.0
L134539559L
tp147
sL134534904L
(F1.0
L134534943L
tp148
sL134531359L
(F2.0
L134531370L
tp149
sL134517024L
(F1.0
L134517058L
tp150
sL134523952L
(F162.53968253968253
L134523964L
tp151
sL134538937L
(F2.0
L134538960L
tp152
sL134525220L
(F2.0
L134525225L
tp153
sL134535462L
(F2.0
L134535478L
tp154
sL134539559L
(F4.0
L134539587L
tp155
sL134525225L
(F2.0
L134525275L
tp156
sL134531370L
(F1.0
L134531378L
tp157
sL134529323L
(F1.36793893129771
L134529332L
tp158
sL134537518L
(F5.333333333333333
L134537525L
tp159
sL134519089L
(F2.0
L134519120L
tp160
sL134531378L
(F1.0
L134531401L
tp161
sL134521139L
(F1.3350717079530638
L134521175L
tp162
sL134529332L
(F21.88702290076336
L134529342L
tp163
sL134537525L
(F16.0
L134537530L
tp164
sL134535478L
(F2.0
L134535499L
tp165
sL134535598L
(F4.0
L134535604L
tp166
sL134537530L
(F4.0
L134537566L
tp167
sL134532032L
(F2.6666666666666665
L134532052L
tp168
sL134522250L
(F1.1428571428571428
L134522300L
tp169
sL134529342L
(F43.77404580152672
L134529348L
tp170
sL134530784L
(F2.377051898524291
L134530788L
tp171
sL134522573L
(F2.782608695652174
L134522582L
tp172
sL134539587L
(F8.0
L134539599L
tp173
sL134529348L
(F87.54809160305344
L134529353L
tp174
sL134528891L
(F7.0
L134528902L
tp175
sL134529353L
(F87.54809160305344
L134529361L
tp176
sL134535499L
(F1.0
L134535501L
tp177
sL134527714L
(F0.8443271767810027
L134527722L
tp178
sL134539599L
(F8.0
L134539627L
tp179
sL134517072L
(F1.0
L134517076L
tp180
sL134529361L
(F175.09618320610687
L134529372L
tp181
sL134519122L
(F1.0
L134519166L
tp182
sL134529763L
(F21.88702290076336
L134529769L
tp183
sL134521175L
(F2.6701434159061277
L134521185L
tp184
sL134531030L
(F2.0
L134531035L
tp185
sL134523225L
(F0.9523809523809523
L134523231L
tp186
sL134525275L
(F1.0
L134525277L
tp187
sL134529372L
(F87.54809160305344
L134529387L
tp188
sL134525277L
(F1.0
L134525292L
tp189
sL134537566L
(F2.6666666666666665
L134537584L
tp190
sL134523231L
(F1.9047619047619047
L134523237L
tp191
sL134517088L
(F1.0
L134517103L
tp192
sL134521185L
(F5.340286831812255
L134521962L
tp193
sL134523237L
(F3.8095238095238093
L134523243L
tp194
sL134534204L
(F1.0
L134534322L
tp195
sL134531435L
(F0.6666666666666666
L134531445L
tp196
sL134525292L
(F1.3333333333333333
L134525328L
tp197
sL134535533L
(F0.6666666666666666
L134535546L
tp198
sL134517187L
(F1.0
L134517189L
tp199
sL134517103L
(F2.0
L134517112L
tp200
sL134537584L
(F5.333333333333333
L134537594L
tp201
sL134532840L
(F1.0
L134532867L
tp202
sL134522781L
(F1.2234169653524491
L134522795L
tp203
sL134531445L
(F1.3333333333333333
L134531458L
tp204
sL134517112L
(F4.0
L134517129L
tp205
sL134526462L
(F29.09090909090909
L134526469L
tp206
sL134535546L
(F1.3333333333333333
L134535551L
tp207
sL134540788L
(F2.0
L134540794L
tp208
sL134529405L
(F350.19236641221374
L134529423L
tp209
sL134519166L
(F2.0
L134519195L
tp210
sL134535551L
(F1.0
L134535570L
tp211
sL134531458L
(F2.6666666666666665
L134531496L
tp212
sL134539653L
(F16.0
L134539667L
tp213
sL134517938L
(F1.0
L134517951L
tp214
sL134517129L
(F1.0
L134517131L
tp215
sL134526018L
(F1.7777777777777777
L134526024L
tp216
sL134529423L
(F700.3847328244275
L134529431L
tp217
sL134525328L
(F2.6666666666666665
L134525347L
tp218
sL134537617L
(F4.0
L134537636L
tp219
sL134535570L
(F2.0
L134535576L
tp220
sL134539667L
(F8.88888888888889
L134539690L
tp221
sL134523284L
(F0.9756097560975611
L134523293L
tp222
sL134529431L
(F1400.769465648855
L134529442L
tp223
sL134539352L
(F2.6666666666666665
L134539359L
tp224
sL134522305L
(F2.2857142857142856
L134522356L
tp225
sL134530964L
(F15.573331613343443
L134530965L
tp226
sL134519195L
(F4.0
L134519221L
tp227
sL134523293L
(F1.9512195121951221
L134523307L
tp228
sL134530896L
(F7.420289855072464
L134530898L
tp229
sL134541188L
(F1.0
L134541193L
tp230
sL134529442L
(F700.3847328244275
L134529454L
tp231
sL134525347L
(F2.6666666666666665
L134525351L
tp232
sL134537636L
(F2.0
L134537639L
tp233
sL134523872L
(F162.53968253968253
L134523882L
tp234
sL134537639L
(F1.0
L134537647L
tp235
sL134517160L
(F2.0
L134517169L
tp236
sL134539690L
(F17.77777777777778
L134539695L
tp237
sL134523307L
(F3.9024390243902443
L134523312L
tp238
sL134530760L
(F2.377051898524291
L134530765L
tp239
sL134529454L
(F1400.769465648855
L134529465L
tp240
sL134537647L
(F1.0
L134537667L
tp241
sL134523312L
(F1.9512195121951221
L134523318L
tp242
sL134531505L
(F2.6666666666666665
L134531529L
tp243
sL134535604L
(F8.0
L134535609L
tp244
sL134519221L
(F1.0
L134519244L
tp245
sL134523318L
(F3.9024390243902443
L134523391L
tp246
sL134529465L
(F700.3847328244275
L134529469L
tp247
sL134539707L
(F71.11111111111111
L134539713L
tp248
sL134525372L
(F1.3333333333333333
L134525377L
tp249
sL134529469L
(F1.3182756024529159
L134529475L
tp250
sL134525377L
(F0.8888888888888888
L134525379L
tp251
sL134525379L
(F1.0
L134525392L
tp252
sL134539718L
(F142.22222222222223
L134539724L
tp253
sL134531529L
(F1.3333333333333333
L134531541L
tp254
sL134519244L
(F2.0
L134519273L
tp255
sL134529485L
(F87.54809160305344
L134529490L
tp256
sL134525005L
(F1.7777777777777777
L134525078L
tp257
sL134525392L
(F1.0
L134525415L
tp258
sL138555128L
(F1.0
L138555132L
tp259
sL134529490L
(F1.9553312647048795
L134529495L
tp260
sL134524323L
(F7.8048780487804885
L134524365L
tp261
sL134537684L
(F1.0
L134537686L
tp262
sL134531541L
(F1.0
L134531578L
tp263
sL134537686L
(F1.0
L134537697L
tp264
sL134517497L
(F1.0
L134517616L
tp265
sL134517209L
(F2.0
L134517228L
tp266
sL134535643L
(F2.6666666666666665
L134535656L
tp267
sL134529503L
(F43.77404580152672
L134529508L
tp268
sL134537697L
(F2.0
L134537719L
tp269
sL134539747L
(F37.372262773722625
L134539753L
tp270
sL134529508L
(F87.54809160305344
L134529513L
tp271
sL134526943L
(F5.059288537549407
L134526948L
tp272
sL134525415L
(F1.0
L134525447L
tp273
sL134535656L
(F1.3333333333333333
L134535686L
tp274
sL134519273L
(F4.0
L134519299L
tp275
sL134525351L
(F0.6666666666666666
L134525372L
tp276
sL134517228L
(F1.0
L134517230L
tp277
sL134540984L
(F2.0
L134540990L
tp278
sL134529519L
(F87.54809160305344
L134529524L
tp279
sL134517232L
(F1.0
L134517243L
tp280
sL134531496L
(F1.3333333333333333
L134531505L
tp281
sL134538967L
(F4.0
L134538972L
tp282
sL134529524L
(F87.54809160305344
L134529529L
tp283
sL134530814L
(F1.9553312647048795
L134530818L
tp284
sL134537719L
(F1.3333333333333333
L134537760L
tp285
sL134529529L
(F87.54809160305344
L134529543L
tp286
sL134531578L
(F2.0
L134531583L
tp287
sL134517243L
(F1.8181818181818181
L134517245L
tp288
sL134531583L
(F2.0
L134531597L
tp289
sL134517248L
(F2.0
L134517257L
tp290
sL134528768L
(F16.0
L134528775L
tp291
sL134519299L
(F1.0
L134519379L
tp292
sL134535686L
(F2.6666666666666665
L134535692L
tp293
sL134525447L
(F2.0
L134525461L
tp294
sL134517257L
(F4.0
L134517275L
tp295
sL134530824L
(F1.6231884057971016
L134530842L
tp296
sL134535692L
(F5.333333333333333
L134535702L
tp297
sL134531597L
(F4.0
L134531628L
tp298
sL134518652L
(F0.8648648648648649
L134518660L
tp299
sL134529011L
(F14.0
L134529022L
tp300
sL134529112L
(F7.0
L134529123L
tp301
sL134525461L
(F4.0
L134525473L
tp302
sL134529558L
(F350.19236641221374
L134529580L
tp303
sL134529247L
(F6.492753623188406
L134529251L
tp304
sL134527748L
(F1.0
L134527775L
tp305
sL134517275L
(F1.0
L134517293L
tp306
sL134537760L
(F2.6666666666666665
L134537783L
tp307
sL134525473L
(F2.6666666666666665
L134525501L
tp308
sL134517169L
(F4.0
L134517187L
tp309
sL134539818L
(F568.8888888888889
L134539823L
tp310
sL134529580L
(F700.3847328244275
L134529609L
tp311
sL134517293L
(F1.0
L134517323L
tp312
sL134523438L
(F5.079365079365079
L134523450L
tp313
sL134539823L
(F568.8888888888889
L134539874L
tp314
sL134531633L
(F8.0
L134531649L
tp315
sL134536493L
(F2.0
L134536516L
tp316
sL134518486L
(F2.0
L134518526L
tp317
sL134537783L
(F1.7777777777777777
L134537790L
tp318
sL134524686L
(F10.666666666666666
L134524692L
tp319
sL134523450L
(F10.158730158730158
L134523455L
tp320
sL134525501L
(F5.333333333333333
L134525552L
tp321
sL134537790L
(F5.333333333333333
L134537795L
tp322
sL134523455L
(F20.317460317460316
L134523460L
tp323
sL134531649L
(F16.0
L134531656L
tp324
sL134537795L
(F1.3333333333333333
L134537839L
tp325
sL134523460L
(F40.63492063492063
L134523469L
tp326
sL134527073L
(F2.5296442687747036
L134527096L
tp327
sL134531656L
(F16.0
L134531659L
tp328
sL134529609L
(F1400.769465648855
L134529618L
tp329
sL134517323L
(F2.0
L134517399L
tp330
sL134526469L
(F1.2903225806451613
L134526481L
tp331
sL134523469L
(F81.26984126984127
L134523480L
tp332
sL134529618L
(F2801.53893129771
L134529624L
tp333
sL134519379L
(F2.0
L134519394L
tp334
sL134523662L
(F2600.6349206349205
L134523675L
tp335
sL134535609L
(F8.0
L134535612L
tp336
sL134523480L
(F162.53968253968253
L134523485L
tp337
sL134524692L
(F21.333333333333332
L134524740L
tp338
sL134523485L
(F325.07936507936506
L134523496L
tp339
sL134519394L
(F4.0
L134519408L
tp340
sL134539695L
(F17.77777777777778
L134539701L
tp341
sL134518526L
(F2.0
L134518527L
tp342
sL134535783L
(F85.33333333333333
L134535792L
tp343
sL134523496L
(F650.1587301587301
L134523501L
tp344
sL134531689L
(F16.0
L134531708L
tp345
sL134523501L
(F40.63492063492063
L134523510L
tp346
sL134537839L
(F2.6666666666666665
L134537862L
tp347
sL134519408L
(F8.0
L134519417L
tp348
sL134523510L
(F81.26984126984127
L134523519L
tp349
sL134535273L
(F1.0
L134535318L
tp350
sL134528788L
(F16.0
L134528793L
tp351
sL134529658L
(F11206.15572519084
L134529669L
tp352
sL134531708L
(F8.0
L134531767L
tp353
sL134526948L
(F1.2648221343873518
L134526992L
tp354
sL134523519L
(F162.53968253968253
L134523524L
tp355
sL134539627L
(F16.0
L134539653L
tp356
sL134537084L
(F16.0
L134537089L
tp357
sL134523524L
(F20.317460317460316
L134523533L
tp358
sL134529669L
(F5603.07786259542
L134529681L
tp359
sL134537862L
(F1.7777777777777777
L134537869L
tp360
sL134539911L
(F1137.7777777777778
L134539954L
tp361
sL134539701L
(F35.55555555555556
L134539707L
tp362
sL134525578L
(F2.6666666666666665
L134525592L
tp363
sL134527627L
(F0.9149392423159399
L134527666L
tp364
sL134523533L
(F40.63492063492063
L134523538L
tp365
sL134524365L
(F2.601626016260163
L134524374L
tp366
sL134536837L
(F16.0
L134536842L
tp367
sL134529681L
(F11206.15572519084
L134529692L
tp368
sL134523538L
(F81.26984126984127
L134523547L
tp369
sL134537667L
(F2.0
L134537684L
tp370
sL134517399L
(F1.3333333333333333
L134517420L
tp371
sL134525592L
(F1.6
L134525613L
tp372
sL134523547L
(F162.53968253968253
L134523556L
tp373
sL134529692L
(F5603.07786259542
L134529704L
tp374
sL134541202L
(F2.0
L134541208L
tp375
sL138554956L
(F1.0
L138554960L
tp376
sL134535842L
(F12.19047619047619
L134535848L
tp377
sL134535963L
(F195.04761904761904
L134535982L
tp378
sL134523556L
(F325.07936507936506
L134523565L
tp379
sL134529704L
(F11206.15572519084
L134529715L
tp380
sL134517420L
(F1.0
L134517432L
tp381
sL134523565L
(F650.1587301587301
L134523570L
tp382
sL134519471L
(F4.571428571428571
L134519494L
tp383
sL134539954L
(F568.8888888888889
L134539960L
tp384
sL134529715L
(F5603.07786259542
L134529727L
tp385
sL134524488L
(F4.625112917795845
L134524527L
tp386
sL134531767L
(F2.6666666666666665
L134531888L
tp387
sL134539960L
(F1137.7777777777778
L134539983L
tp388
sL134525627L
(F3.2
L134525632L
tp389
sL134528307L
(F2.0
L134528312L
tp390
sL134529727L
(F11206.15572519084
L134529738L
tp391
sL134537920L
(F2.6666666666666665
L134537943L
tp392
sL134522656L
(F3.6702508960573477
L134522675L
tp393
sL134534861L
(F4.0
L134534866L
tp394
sL134529951L
(F87.54809160305344
L134529959L
tp395
sL134519494L
(F3.0476190476190474
L134519501L
tp396
sL134535880L
(F48.76190476190476
L134535924L
tp397
sL134539724L
(F18.686131386861312
L134539747L
tp398
sL134529738L
(F5603.07786259542
L134529744L
tp399
sL134527693L
(F2.0915032679738563
L134527714L
tp400
sL134539983L
(F1137.7777777777778
L134540051L
tp401
sL134529744L
(F933.8463104325699
L134529745L
tp402
sL134529745L
(F0.7945546183556471
L134529746L
tp403
sL134529746L
(F1.9126142352077915
L134529751L
tp404
sL134523604L
(F325.07936507936506
L134523616L
tp405
sL134537943L
(F1.7777777777777777
L134537950L
tp406
sL134531035L
(F1.0
L134531130L
tp407
sL134541092L
(F8.0
L134541098L
tp408
sL134535612L
(F4.0
L134535643L
tp409
sL134529757L
(F21.88702290076336
L134529763L
tp410
sL134537950L
(F5.333333333333333
L134537955L
tp411
sL134523616L
(F650.1587301587301
L134523628L
tp412
sL134517200L
(F1.0
L134517209L
tp413
sL134533858L
(F2.0
L134533998L
tp414
sL134537955L
(F1.3333333333333333
L134537988L
tp415
sL134528465L
(F1.0
L134528480L
tp416
sL134529769L
(F21.88702290076336
L134529775L
tp417
sL134527722L
(F1.0
L134527748L
tp418
sL134519591L
(F9.142857142857142
L134519614L
tp419
sL134523628L
(F1300.3174603174602
L134523662L
tp420
sL134529475L
(F43.77404580152672
L134529485L
tp421
sL134529775L
(F21.88702290076336
L134529781L
tp422
sL134522388L
(F2.782608695652174
L134522409L
tp423
sL134535924L
(F97.52380952380952
L134535943L
tp424
sL134529781L
(F21.88702290076336
L134529787L
tp425
sL134524147L
(F162.53968253968253
L134524159L
tp426
sL134519545L
(F4.571428571428571
L134519550L
tp427
sL138555268L
(F1.0
L138555272L
tp428
sL134529787L
(F21.88702290076336
L134529793L
tp429
sL134532906L
(F2.0
L134532936L
tp430
sL134519550L
(F4.571428571428571
L134519591L
tp431
sL134529793L
(F21.88702290076336
L134529806L
tp432
sL134536909L
(F5.333333333333333
L134536916L
tp433
sL134530859L
(F1.6231884057971016
L134530865L
tp434
sL134537988L
(F4.0
L134538029L
tp435
sL134529885L
(F43.77404580152672
L134529892L
tp436
sL134535943L
(F97.52380952380952
L134535963L
tp437
sL134537004L
(F16.0
L134537009L
tp438
sL134529495L
(F21.88702290076336
L134529503L
tp439
sL134525709L
(F2.0
L134525746L
tp440
sL134529806L
(F43.77404580152672
L134529812L
tp441
sL138554840L
(F1.0
L138554844L
tp442
sL134540051L
(F12.66542980828695
L134540071L
tp443
sL134529812L
(F87.54809160305344
L134529818L
tp444
sL134535982L
(F390.0952380952381
L134535987L
tp445
sL134526443L
(F14.545454545454545
L134526457L
tp446
sL134527108L
(F1.2648221343873518
L134527146L
tp447
sL134529818L
(F175.09618320610687
L134529823L
tp448
sL134523675L
(F3.9634234844453045
L134523681L
tp449
sL134527775L
(F1.3333333333333333
L134527856L
tp450
sL134523681L
(F7.926846968890609
L134523740L
tp451
sL134529829L
(F3.03070662227155
L134529835L
tp452
sL134540071L
(F25.3308596165739
L134540073L
tp453
sL134528795L
(F1.0
L134528865L
tp454
sL134540073L
(F0.7738814993954051
L134540078L
tp455
sL134529835L
(F6.0614132445431
L134529840L
tp456
sL134538029L
(F8.0
L134538052L
tp457
sL134540078L
(F25.3308596165739
L134540087L
tp458
sL134529840L
(F1.4646505925623212
L134529846L
tp459
sL134525746L
(F1.0
L134525748L
tp460
sL134535987L
(F780.1904761904761
L134535992L
tp461
sL134525748L
(F1.0
L134525783L
tp462
sL134529846L
(F2.9293011851246424
L134529858L
tp463
sL134540087L
(F25.3308596165739
L134540104L
tp464
sL134535992L
(F1560.3809523809523
L134535994L
tp465
sL134535994L
(F780.1904761904761
L134536009L
tp466
sL134519614L
(F6.095238095238095
L134519621L
tp467
sL134518581L
(F4.571428571428571
L134518585L
tp468
sL134524384L
(F10.406504065040652
L134524426L
tp469
sL134529858L
(F2.9293011851246424
L134529863L
tp470
sL134538052L
(F5.333333333333333
L134538059L
tp471
sL134519621L
(F18.285714285714285
L134519626L
tp472
sL134529863L
(F21.88702290076336
L134529869L
tp473
sL134540104L
(F3.7529778266446763
L134540118L
tp474
sL134536009L
(F1560.3809523809523
L134536015L
tp475
sL134519626L
(F4.571428571428571
L134519670L
tp476
sL134538059L
(F16.0
L134538064L
tp477
sL134528728L
(F4.0
L134528751L
tp478
sL134529869L
(F43.77404580152672
L134529885L
tp479
sL134536015L
(F1560.3809523809523
L134536017L
tp480
sL134538064L
(F4.0
L134538108L
tp481
sL134536017L
(F312.0761904761905
L134536029L
tp482
sL134541208L
(F4.0
L134541215L
tp483
sL134531926L
(F10.666666666666666
L134531940L
tp484
sL134525783L
(F2.0
L134525789L
tp485
sL134536676L
(F1.3333333333333333
L134536683L
tp486
sL134523740L
(F7.926846968890609
L134523764L
tp487
sL134525789L
(F4.0
L134525814L
tp488
sL134540126L
(F0.9838113080655234
L134540131L
tp489
sL134541456L
(F1.0
L134541458L
tp490
sL134540131L
(F1.0
L134540159L
tp491
sL134529892L
(F21.88702290076336
L134529896L
tp492
sL134528486L
(F1.3333333333333333
L134528491L
tp493
sL134529896L
(F43.77404580152672
L134529901L
tp494
sL134529901L
(F3.381929700401038
L134529907L
tp495
sL134533998L
(F1.0526315789473684
L134534006L
tp496
sL134530877L
(F12.985507246376812
L134530879L
tp497
sL134517616L
(F2.6666666666666665
L134517620L
tp498
sL134517136L
(F12.499999999999998
L134517136L
tp499
sL134529907L
(F6.763859400802076
L134529912L
tp500
sL134523764L
(F81.26984126984127
L134523770L
tp501
sL134527861L
(F2.6666666666666665
L134527865L
tp502
sL134525814L
(F2.0
L134525821L
tp503
sL134539753L
(F24.914841849148416
L134539759L
tp504
sL134529912L
(F5.167057127410344
L134529918L
tp505
sL134527865L
(F0.6666666666666666
L134527873L
tp506
sL134523770L
(F162.53968253968253
L134523780L
tp507
sL134530879L
(F1.855072463768116
L134530885L
tp508
sL134538108L
(F8.0
L134538131L
tp509
sL134525821L
(F2.0
L134525826L
tp510
sL134529918L
(F10.334114254820689
L134529924L
tp511
sL134540159L
(F2.0
L134540166L
tp512
sL134527873L
(F1.3333333333333333
L134527878L
tp513
sL134525826L
(F1.0
L134525828L
tp514
sL134528491L
(F4.0
L134528511L
tp515
sL134523780L
(F81.26984126984127
L134523792L
tp516
sL134534021L
(F1.3333333333333333
L134534025L
tp517
sL134527878L
(F0.8888888888888888
L134527880L
tp518
sL134518593L
(F2.2857142857142856
L134518646L
tp519
sL134527880L
(F1.0
L134527918L
tp520
sL134529929L
(F6.889409503213793
L134529934L
tp521
sL134519693L
(F6.095238095238095
L134519700L
tp522
sL134529934L
(F21.88702290076336
L134529940L
tp523
sL134523792L
(F162.53968253968253
L134523826L
tp524
sL134538131L
(F5.333333333333333
L134538138L
tp525
sL134519700L
(F18.285714285714285
L134519705L
tp526
sL134517653L
(F0.8888888888888888
L134517663L
tp527
sL134536266L
(F2535.6190476190477
L134536291L
tp528
sL134519705L
(F4.571428571428571
L134519751L
tp529
sL134529946L
(F87.54809160305344
L134529951L
tp530
sL134539759L
(F49.82968369829683
L134539764L
tp531
sL134534046L
(F1.3333333333333333
L134534077L
tp532
sL134517663L
(F1.7777777777777777
L134517672L
tp533
sL134536688L
(F1.0
L134536725L
tp534
sL134540197L
(F2.6666666666666665
L134540207L
tp535
sL134529959L
(F175.09618320610687
L134529970L
tp536
sL134517672L
(F0.8888888888888888
L134517734L
tp537
sL134525865L
(F2.0
L134525870L
tp538
sL134525870L
(F4.0
L134525874L
tp539
sL134540207L
(F5.333333333333333
L134540220L
tp540
sL138555208L
(F1.0
L138555212L
tp541
sL134529970L
(F87.54809160305344
L134529982L
tp542
sL134536683L
(F4.0
L134536688L
tp543
sL134536117L
(F2535.6190476190477
L134536129L
tp544
sL134534985L
(F1.0
L134535025L
tp545
sL134527928L
(F4.0
L134527961L
tp546
sL134539764L
(F49.82968369829683
L134539769L
tp547
sL134526111L
(F2.0
L134526124L
tp548
sL134540220L
(F2.1333333333333333
L134540247L
tp549
sL134534077L
(F1.0
L134534092L
tp550
sL134529982L
(F175.09618320610687
L134529993L
tp551
sL134529823L
(F1.515353311135775
L134529829L
tp552
sL134536129L
(F2535.6190476190477
L134536157L
tp553
sL134525894L
(F16.0
L134525898L
tp554
sL134533281L
(F20.0
L134533369L
tp555
sL134522700L
(F0.6117084826762246
L134522781L
tp556
sL134525898L
(F2.6666666666666665
L134525918L
tp557
sL134534092L
(F2.6666666666666665
L134534096L
tp558
sL134538189L
(F8.0
L134538212L
tp559
sL134534096L
(F0.6666666666666666
L134534102L
tp560
sL134538744L
(F1.0
L134538750L
tp561
sL134532052L
(F1.0
L134532081L
tp562
sL134530005L
(F175.09618320610687
L134530016L
tp563
sL134534102L
(F1.3333333333333333
L134534131L
tp564
sL134539769L
(F284.44444444444446
L134539818L
tp565
sL134527961L
(F8.0
L134527967L
tp566
sL134523868L
(F81.26984126984127
L134523872L
tp567
sL134536157L
(F2535.6190476190477
L134536185L
tp568
sL134519774L
(F6.095238095238095
L134519781L
tp569
sL134527967L
(F1.0
L134527972L
tp570
sL134530016L
(F87.54809160305344
L134530025L
tp571
sL134528751L
(F8.0
L134528761L
tp572
sL134525922L
(F1.1428571428571428
L134525941L
tp573
sL134527972L
(F1.0
L134527984L
tp574
sL134519781L
(F18.285714285714285
L134519786L
tp575
sL134517734L
(F1.7777777777777777
L134517759L
tp576
sL134530025L
(F43.77404580152672
L134530030L
tp577
sL134523882L
(F81.26984126984127
L134523894L
tp578
sL134538219L
(F16.0
L134538224L
tp579
sL134530030L
(F1.2874719353390212
L134530036L
tp580
sL138555204L
(F1.0
L138555208L
tp581
sL134527984L
(F2.0
L134528012L
tp582
sL134523590L
(F325.07936507936506
L134523599L
tp583
sL134539713L
(F3.4224598930481283
L134539718L
tp584
sL134534131L
(F0.8888888888888888
L134534163L
tp585
sL134530036L
(F2.5749438706780423
L134530082L
tp586
sL134525941L
(F2.2857142857142856
L134525947L
tp587
sL134523894L
(F162.53968253968253
L134523913L
tp588
sL134536185L
(F2535.6190476190477
L134536213L
tp589
sL134523391L
(F3.9024390243902443
L134523438L
tp590
sL138555072L
(F1.0
L138555076L
tp591
sL134517759L
(F3.5555555555555554
L134517790L
tp592
sL134518755L
(F1.7777777777777777
L134518757L
tp593
sL134525954L
(F2.0
L134525974L
tp594
sL134529195L
(F3.246376811594203
L134529201L
tp595
sL134540118L
(F1.9362768270776212
L134540126L
tp596
sL134540297L
(F0.8205128205128205
L134540307L
tp597
sL134540805L
(F2.6666666666666665
L134540816L
tp598
sL134526143L
(F1.0
L134526149L
tp599
sL134524804L
(F2.0
L134524822L
tp600
sL134532111L
(F1.0
L134532135L
tp601
sL134540307L
(F1.641025641025641
L134540314L
tp602
sL134536213L
(F2535.6190476190477
L134536241L
tp603
sL134525974L
(F4.0
L134525983L
tp604
sL134519833L
(F9.142857142857142
L134519843L
tp605
sL134540314L
(F0.8205128205128205
L134540319L
tp606
sL134530906L
(F6.3015384615384615
L134530922L
tp607
sL134517790L
(F0.8888888888888888
L134517834L
tp608
sL134540319L
(F1.0
L134540327L
tp609
sL134540287L
(F0.6666666666666666
L134540297L
tp610
sL134535344L
(F1.0
L134535349L
tp611
sL134530082L
(F2.5749438706780423
L134530118L
tp612
sL134519843L
(F18.285714285714285
L134520401L
tp613
sL134522052L
(F59.148014440433215
L134522062L
tp614
sL134528037L
(F4.0
L134528045L
tp615
sL134540327L
(F1.6
L134540397L
tp616
sL138555228L
(F1.0
L138555232L
tp617
sL134529543L
(F175.09618320610687
L134529558L
tp618
sL134529281L
(F25.971014492753625
L134529287L
tp619
sL134528045L
(F4.0
L134528048L
tp620
sL134536029L
(F97.52380952380952
L134536052L
tp621
sL134528048L
(F2.0
L134528066L
tp622
sL134536241L
(F2535.6190476190477
L134536266L
tp623
sL134538293L
(F8.0
L134538316L
tp624
sL134538757L
(F2.0
L134538777L
tp625
sL134526009L
(F5.333333333333333
L134526018L
tp626
sL134523964L
(F162.53968253968253
L134524017L
tp627
sL134535349L
(F1.0
L134535394L
tp628
sL134541152L
(F4.0
L134541158L
tp629
sL134528066L
(F4.0
L134528095L
tp630
sL134530118L
(F5.149887741356085
L134530135L
tp631
sL134527918L
(F2.0
L134527928L
tp632
sL134526024L
(F3.5555555555555554
L134526044L
tp633
sL134517834L
(F1.7777777777777777
L134517841L
tp634
sL134538316L
(F5.333333333333333
L134538323L
tp635
sL134541080L
(F2.0
L134541086L
tp636
sL134517841L
(F1.7777777777777777
L134517846L
tp637
sL134535318L
(F2.0
L134535344L
tp638
sL134538323L
(F16.0
L134538328L
tp639
sL134517846L
(F0.8888888888888888
L134517883L
tp640
sL134530135L
(F2.281240551851439
L134530190L
tp641
sL134538328L
(F4.0
L134538372L
tp642
sL134531940L
(F5.333333333333333
L134532032L
tp643
sL134526044L
(F7.111111111111111
L134526053L
tp644
sL134522042L
(F29.574007220216608
L134522052L
tp645
sL134528095L
(F8.0
L134528126L
tp646
sL134534943L
(F1.0
L134534975L
tp647
sL134540816L
(F2.2857142857142856
L134540823L
tp648
sL134536291L
(F2535.6190476190477
L134536313L
tp649
sL134526053L
(F2.3703703703703702
L134526076L
tp650
sL134526481L
(F2.5806451612903225
L134526499L
tp651
sL138555212L
(F1.0
L138555216L
tp652
sL134521962L
(F0.9418257070590941
L134521973L
tp653
sL134540397L
(F3.2
L134540411L
tp654
sL138555144L
(F1.0
L138555148L
tp655
sL134532208L
(F1.0
L134532255L
tp656
sL134524017L
(F81.26984126984127
L134524026L
tp657
sL134524435L
(F6.937669376693767
L134524446L
tp658
sL134521973L
(F1.7181208053691275
L134521980L
tp659
sL134536313L
(F2535.6190476190477
L134536338L
tp660
sL134524026L
(F325.07936507936506
L134524035L
tp661
sL134517883L
(F1.0
L134517938L
tp662
sL134521980L
(F1.8836514141181881
L134521985L
tp663
sL134528126L
(F16.0
L134528143L
tp664
sL134525874L
(F8.0
L134525894L
tp665
sL134540417L
(F6.4
L134540424L
tp666
sL134524035L
(F650.1587301587301
L134524050L
tp667
sL134538372L
(F8.0
L134538395L
tp668
sL134535702L
(F5.333333333333333
L134535735L
tp669
sL134523863L
(F108.35978835978835
L134523868L
tp670
sL134540424L
(F0.8
L134540461L
tp671
sL134541164L
(F16.0
L134541170L
tp672
sL134538212L
(F5.333333333333333
L134538219L
tp673
sL134530583L
(F3.5694072592284822
L134530594L
tp674
sL134526092L
(F2.0
L134526105L
tp675
sL134530190L
(F4.562481103702878
L134530196L
tp676
sL134528143L
(F2.0
L134528161L
tp677
sL134536338L
(F2535.6190476190477
L134536363L
tp678
sL134530196L
(F4.562481103702878
L134530202L
tp679
sL134522007L
(F1.848375451263538
L134522016L
tp680
sL134526105L
(F1.0
L134526111L
tp681
sL134530202L
(F9.124962207405757
L134530211L
tp682
sL134538395L
(F5.333333333333333
L134538402L
tp683
sL134532255L
(F1.0
L134532282L
tp684
sL134522016L
(F3.696750902527076
L134522026L
tp685
sL134528161L
(F1.0
L134528183L
tp686
sL134538402L
(F16.0
L134538407L
tp687
sL134530211L
(F9.124962207405757
L134530217L
tp688
sL134538407L
(F4.0
L134538453L
tp689
sL134530217L
(F18.249924414811513
L134530223L
tp690
sL134522026L
(F7.393501805054152
L134522036L
tp691
sL134536363L
(F181.1156462585034
L134536379L
tp692
sL134526124L
(F1.0
L134526130L
tp693
sL134540461L
(F1.6
L134540472L
tp694
sL134530223L
(F7.209873593982552
L134530227L
tp695
sL134534322L
(F1.0
L134534346L
tp696
sL134530227L
(F1.802468398495638
L134530240L
tp697
sL134522036L
(F14.787003610108304
L134522042L
tp698
sL134519670L
(F9.142857142857142
L134519693L
tp699
sL134528183L
(F2.0
L134528188L
tp700
sL134540472L
(F1.0666666666666667
L134540479L
tp701
sL134517620L
(F0.6666666666666666
L134517629L
tp702
sL134532282L
(F1.0
L134532309L
tp703
sL134536379L
(F211.3015873015873
L134536412L
tp704
sL134528188L
(F2.0
L134528193L
tp705
sL134517951L
(F2.0
L134517961L
tp706
sL134530240L
(F3.604936796991276
L134530260L
tp707
sL134528193L
(F1.0
L134528227L
tp708
sL134540484L
(F0.8
L134540492L
tp709
sL134526149L
(F2.0
L134526161L
tp710
sL134531011L
(F1.0
L134531025L
tp711
sL134517961L
(F2.0
L134518437L
tp712
sL134534346L
(F2.0
L134534351L
tp713
sL134524791L
(F1.0
L134524804L
tp714
sL134524108L
(F650.1587301587301
L134524147L
tp715
sL134528546L
(F2.0
L134528637L
tp716
sL134522062L
(F1.4227162209100381
L134522081L
tp717
sL134534351L
(F2.0
L134534372L
tp718
sL134526161L
(F1.0
L134526166L
tp719
sL134526499L
(F5.161290322580645
L134526509L
tp720
sL134530260L
(F2.403291197994184
L134530265L
tp721
sL134532309L
(F1.0
L134532458L
tp722
sL134526166L
(F1.0
L134526201L
tp723
sL134530265L
(F18.249924414811513
L134530271L
tp724
sL134540495L
(F0.9142857142857143
L134540497L
tp725
sL134536412L
(F422.6031746031746
L134536416L
tp726
sL134524786L
(F2.6666666666666665
L134524789L
tp727
sL134531401L
(F1.3333333333333333
L134531435L
tp728
sL134540511L
(F2.0
L134540535L
tp729
sL134536416L
(F39.61904761904762
L134536427L
tp730
sL134522081L
(F0.5520215633423181
L134522090L
tp731
sL134528227L
(F1.0
L134528236L
tp732
sL134515940L
(F1.0
L134515965L
tp733
sL134530277L
(F72.99969765924605
L134530286L
tp734
sL134540497L
(F1.0
L134540511L
tp735
sL134530940L
(F1.3856562922868743
L134530948L
tp736
sL134522090L
(F1.1040431266846362
L134522099L
tp737
sL134536427L
(F2.6666666666666665
L134536429L
tp738
sL134528236L
(F2.0
L134528241L
tp739
sL134536429L
(F1.0
L134536493L
tp740
sL134530286L
(F3.893332903335861
L134530318L
tp741
sL134517629L
(F1.3333333333333333
L134517653L
tp742
sL134528241L
(F2.0
L134528246L
tp743
sL134538483L
(F16.0
L134538488L
tp744
sL134533584L
(F20.0
L134533714L
tp745
sL134530788L
(F0.6641380069142437
L134530796L
tp746
sL134528246L
(F1.0
L134528250L
tp747
sL134540535L
(F4.0
L134540555L
tp748
sL134538488L
(F4.0
L134538516L
tp749
sL134526201L
(F2.0
L134526224L
tp750
sL134528250L
(F1.0
L134528259L
tp751
sL134534396L
(F2.0
L134534401L
tp752
sL134515965L
(F2.0
L134515970L
tp753
sL134529629L
(F5603.07786259542
L134529658L
tp754
sL134524159L
(F325.07936507936506
L134524188L
tp755
sL134527856L
(F2.6666666666666665
L134527861L
tp756
sL134515970L
(F1.0
L134515975L
tp757
sL134528259L
(F2.0
L134528264L
tp758
sL134538972L
(F1.0
L134539016L
tp759
sL134528264L
(F2.0
L134528269L
tp760
sL134531628L
(F8.0
L134531633L
tp761
sL134540555L
(F1.3333333333333333
L134540664L
tp762
sL134528269L
(F1.0
L134528276L
tp763
sL134530318L
(F7.786665806671722
L134530327L
tp764
sL134526509L
(F10.32258064516129
L134526878L
tp765
sL134526224L
(F4.0
L134526247L
tp766
sL134538516L
(F1.0
L134538523L
tp767
sL134530327L
(F5.191110537781148
L134530332L
tp768
sL134525828L
(F1.0
L134525865L
tp769
sL134540847L
(F2.0
L134540858L
tp770
sL134524188L
(F40.63492063492063
L134524201L
tp771
sL134528880L
(F14.0
L134528891L
tp772
sL134530340L
(F3.4352921090093
L134530359L
tp773
sL134540166L
(F1.0
L134540176L
tp774
sL134526247L
(F2.6666666666666665
L134526251L
tp775
sL134541532L
(F1.0
L134541552L
tp776
sL134526251L
(F1.0
L134526257L
tp777
sL134534445L
(F2.0
L134534451L
tp778
sL134528302L
(F2.0
L134528307L
tp779
sL134526257L
(F1.0
L134526283L
tp780
sL134534451L
(F4.0
L134534482L
tp781
sL134534025L
(F0.6666666666666666
L134534046L
tp782
sL134528312L
(F1.0
L134528404L
tp783
sL134538804L
(F1.8181818181818181
L134538852L
tp784
sL134522170L
(F1.1428571428571428
L134522195L
tp785
sL134530271L
(F36.499848829623026
L134530277L
tp786
sL134538561L
(F2.0
L134538577L
tp787
sL134536516L
(F1.3333333333333333
L134536523L
tp788
sL134524230L
(F162.53968253968253
L134524236L
tp789
sL134540920L
(F2.0
L134540926L
tp790
sL134526283L
(F1.0
L134526310L
tp791
sL134524236L
(F162.53968253968253
L134524246L
tp792
sL134536528L
(F1.0
L134536572L
tp793
sL134538577L
(F4.0
L134538587L
tp794
sL134534482L
(F2.0
L134534500L
tp795
sL134519011L
(F2.0
L134519022L
tp796
sL134528910L
(F28.0
L134528921L
tp797
sL134524246L
(F650.1587301587301
L134524302L
tp798
sL134530392L
(F6.8705842180186
L134530394L
tp799
sL134534372L
(F1.0
L134534396L
tp800
sL134530394L
(F0.4186977029454285
L134530400L
tp801
sL134538587L
(F8.0
L134538645L
tp802
sL134522205L
(F3.0476190476190474
L134522215L
tp803
sL134537445L
(F16.0
L134537450L
tp804
sL134530400L
(F0.837395405890857
L134530410L
tp805
sL134540176L
(F1.3333333333333333
L134540197L
tp806
sL134534500L
(F4.0
L134534505L
tp807
sL134526310L
(F1.0
L134526374L
tp808
sL134522215L
(F2.0317460317460316
L134522221L
tp809
sL134534505L
(F4.0
L134534523L
tp810
sL134532458L
(F1.0
L134532493L
tp811
sL134522221L
(F4.063492063492063
L134522245L
tp812
sL134535792L
(F12.19047619047619
L134535802L
tp813
sL134535741L
(F21.333333333333332
L134535753L
tp814
sL134541499L
(F1.8181818181818181
L134541528L
tp815
sL134540664L
(F1.0
L134540669L
tp816
sL134530425L
(F0.69243494536014
L134530436L
tp817
sL134534523L
(F1.3333333333333333
L134534555L
tp818
sL134536572L
(F2.0
L134536595L
tp819
sL134540669L
(F1.0
L134540683L
tp820
sL134530436L
(F0.6692638611053404
L134530442L
tp821
sL134522245L
(F2.4380952380952383
L134522250L
tp822
sL134538476L
(F5.333333333333333
L134538483L
tp823
sL134530442L
(F1.3385277222106808
L134530453L
tp824
sL134540683L
(F2.0
L134540707L
tp825
sL134534612L
(F4.0
L134534617L
tp826
sL134532493L
(F1.0
L134532517L
tp827
sL134524302L
(F92.8798185941043
L134524312L
tp828
sL134519501L
(F9.142857142857142
L134519506L
tp829
sL134528721L
(F8.0
L134528726L
tp830
sL134536595L
(F1.3333333333333333
L134536602L
tp831
sL134528404L
(F1.0
L134528416L
tp832
sL134530453L
(F2.6770554444213617
L134530459L
tp833
sL134536089L
(F2535.6190476190477
L134536117L
tp834
sL134524312L
(F0.14588557100524274
L134524317L
tp835
sL134536602L
(F4.0
L134536607L
tp836
sL134530459L
(F5.354110888842723
L134530464L
tp837
sL134538652L
(F16.0
L134538689L
tp838
sL134530930L
(F1.5753846153846154
L134530940L
tp839
sL134541269L
(F1.7777777777777777
L134541274L
tp840
sL134536607L
(F1.0
L134536653L
tp841
sL134528416L
(F2.0
L134528423L
tp842
sL134540707L
(F4.0
L134540725L
tp843
sL134532517L
(F1.0
L134532544L
tp844
sL134526374L
(F2.0
L134526384L
tp845
sL134528423L
(F1.0
L134528446L
tp846
sL134530472L
(F10.708221777685447
L134530483L
tp847
sL134533468L
(F20.0
L134533584L
tp848
sL134534831L
(F2.0
L134534854L
tp849
sL134536916L
(F16.0
L134536921L
tp850
sL134526384L
(F1.8181818181818181
L134526407L
tp851
sL134534577L
(F1.0
L134534606L
tp852
sL134530483L
(F5.354110888842723
L134530495L
tp853
sL134540725L
(F1.3333333333333333
L134540745L
tp854
sL134535753L
(F42.666666666666664
L134535783L
tp855
sL134541215L
(F1.3333333333333333
L134541220L
tp856
sL134538143L
(F4.0
L134538189L
tp857
sL134522300L
(F2.2857142857142856
L134522305L
tp858
sL134522099L
(F0.7360287511230907
L134522170L
tp859
sL134528446L
(F1.0
L134528458L
tp860
sL134530495L
(F10.708221777685447
L134530515L
tp861
sL134532544L
(F1.0
L134532577L
tp862
sL134538689L
(F1.1428571428571428
L134538709L
tp863
sL134531659L
(F8.0
L134531689L
tp864
sL138554820L
(F1.0
L138554824L
tp865
sL134526407L
(F3.6363636363636362
L134526415L
tp866
sL138554824L
(F1.0
L138554828L
tp867
sL134540745L
(F1.0
L134540747L
tp868
sL134528458L
(F2.0
L134528465L
tp869
sL134540747L
(F1.0
L134540756L
tp870
sL138554828L
(F1.0
L138554832L
tp871
sL134536653L
(F2.0
L134536676L
tp872
sL134534606L
(F2.0
L134534612L
tp873
sL134526415L
(F7.2727272727272725
L134526433L
tp874
sL134541433L
(F1.2903225806451613
L134541441L
tp875
sL134526130L
(F2.0
L134526143L
tp876
sL134530515L
(F5.354110888842723
L134530527L
tp877
sL138554836L
(F1.0
L138554840L
tp878
sL134538709L
(F1.0
L134538711L
tp879
sL134524374L
(F5.203252032520326
L134524384L
tp880
sL134538711L
(F1.0
L134538723L
tp881
sL134524317L
(F3.9024390243902443
L134524323L
tp882
sL134534617L
(F1.3333333333333333
L134534622L
tp883
sL134540762L
(F4.0
L134540769L
tp884
sL138554844L
(F1.0
L138554848L
tp885
sL134534622L
(F1.0
L134534634L
tp886
sL134530527L
(F10.708221777685447
L134530550L
tp887
sL134528480L
(F2.0
L134528486L
tp888
sL134540769L
(F1.3333333333333333
L134540774L
tp889
sL134538723L
(F2.0
L134538744L
tp890
sL138554852L
(F1.0
L138554856L
tp891
sL134530796L
(F1.3282760138284875
L134530810L
tp892
sL134540774L
(F1.0
L134540779L
tp893
sL134520401L
(F1.5058823529411764
L134520450L
tp894
sL138554856L
(F1.0
L138554860L
tp895
sL134534634L
(F2.0
L134534640L
tp896
sL134540779L
(F1.0
L134540788L
tp897
sL138554860L
(F1.0
L138554864L
tp898
sL134533714L
(F20.0
L134533858L
tp899
sL138554848L
(F1.0
L138554852L
tp900
sL138554864L
(F1.0
L138554868L
tp901
sL134532958L
(F1.0
L134533037L
tp902
sL138554868L
(F1.0
L138554872L
tp903
sL134530550L
(F5.354110888842723
L134530569L
tp904
sL134541225L
(F1.0
L134541234L
tp905
sL138554872L
(F1.0
L138554876L
tp906
sL134526457L
(F29.09090909090909
L134526462L
tp907
sL134540794L
(F1.3333333333333333
L134540805L
tp908
sL138554876L
(F1.0
L138554880L
tp909
sL134530865L
(F3.246376811594203
L134530871L
tp910
sL134538750L
(F2.0
L134538757L
tp911
sL134528511L
(F1.0
L134528541L
tp912
sL138554880L
(F1.0
L138554884L
tp913
sL138554884L
(F1.0
L138554888L
tp914
sL134534661L
(F1.3333333333333333
L134534687L
tp915
sL134534401L
(F2.0
L134534425L
tp916
sL138554888L
(F1.0
L138554892L
tp917
sL134530569L
(F0.8923518148071206
L134530575L
tp918
sL134524426L
(F3.4688346883468837
L134524435L
tp919
sL138554892L
(F1.0
L138554896L
tp920
sL134530575L
(F1.7847036296142411
L134530583L
tp921
sL138554896L
(F1.0
L138554900L
tp922
sL134529624L
(F5603.07786259542
L134529629L
tp923
sL134526433L
(F4.848484848484848
L134526443L
tp924
sL138554900L
(F1.0
L138554904L
tp925
sL134536725L
(F2.0
L134536744L
tp926
sL134518727L
(F1.3333333333333333
L134518739L
tp927
sL134540823L
(F1.7777777777777777
L134540828L
tp928
sL138554904L
(F1.0
L138554908L
tp929
sL134535428L
(F1.0
L134535433L
tp930
sL134538779L
(F1.0
L134538797L
tp931
sL138554908L
(F1.0
L138554912L
tp932
sL134528541L
(F2.0
L134528546L
tp933
sL134524446L
(F13.875338753387535
L134524488L
tp934
sL134534687L
(F2.6666666666666665
L134534693L
tp935
sL138554912L
(F1.0
L138554916L
tp936
sL134540833L
(F1.0
L134540847L
tp937
sL134530594L
(F1.7847036296142411
L134530602L
tp938
sL134526076L
(F1.0
L134526092L
tp939
sL138554916L
(F1.0
L138554920L
tp940
sL134534693L
(F5.333333333333333
L134534698L
tp941
sL138554920L
(F1.0
L138554924L
tp942
sL134522409L
(F5.565217391304348
L134522414L
tp943
sL134530602L
(F0.6408953579959502
L134530613L
tp944
sL134517432L
(F1.0
L134517450L
tp945
sL138554924L
(F1.0
L138554928L
tp946
sL134538797L
(F2.0
L134538804L
tp947
sL134522414L
(F5.565217391304348
L134522419L
tp948
sL134534703L
(F1.0
L134534749L
tp949
sL138554928L
(F1.0
L138554932L
tp950
sL134518648L
(F3.4594594594594597
L134518652L
tp951
sL134522419L
(F2.782608695652174
L134522565L
tp952
sL138554932L
(F1.0
L138554936L
tp953
sL134530613L
(F1.2817907159919004
L134530619L
tp954
sL134523570L
(F81.26984126984127
L134523579L
tp955
sL138554936L
(F1.0
L138554940L
tp956
sL134528948L
(F14.0
L134528961L
tp957
sL134540858L
(F4.0
L134540865L
tp958
sL134530619L
(F1.2817907159919004
L134530627L
tp959
sL138554940L
(F1.0
L138554944L
tp960
sL134540479L
(F3.2
L134540484L
tp961
sL134536766L
(F4.0
L134536807L
tp962
sL138554944L
(F1.0
L138554948L
tp963
sL134540865L
(F1.3333333333333333
L134540870L
tp964
sL134530627L
(F2.563581431983801
L134530641L
tp965
sL138554948L
(F1.0
L138554952L
tp966
sL134540870L
(F1.0
L134540875L
tp967
sL138554952L
(F1.0
L138554956L
tp968
sL134540875L
(F1.0
L134540884L
tp969
sL134540756L
(F2.0
L134540762L
tp970
sL134539874L
(F1137.7777777777778
L134539911L
tp971
sL134522957L
(F1.0
L134523225L
tp972
sL138554960L
(F1.0
L138554964L
tp973
sL134530641L
(F1.2817907159919004
L134530668L
tp974
sL138554964L
(F1.0
L138554968L
tp975
sL138554968L
(F1.0
L138554972L
tp976
sL134538852L
(F3.6363636363636362
L134538854L
tp977
sL134540890L
(F1.3333333333333333
L134540897L
tp978
sL134540411L
(F3.2
L134540417L
tp979
sL138554972L
(F1.0
L138554976L
tp980
sL134534749L
(F2.0
L134534772L
tp981
sL134537415L
(F8.0
L134537438L
tp982
sL138554976L
(F1.0
L138554980L
tp983
sL134540897L
(F4.0
L134540902L
tp984
sL134536974L
(F8.0
L134536997L
tp985
sL138554980L
(F1.0
L138554984L
tp986
sL134540902L
(F1.0
L134540907L
tp987
sL134523826L
(F325.07936507936506
L134523863L
tp988
sL134536807L
(F8.0
L134536830L
tp989
sL138554984L
(F1.0
L138554988L
tp990
sL134533052L
(F20.0
L134533057L
tp991
sL134528921L
(F14.0
L134528925L
tp992
sL134540907L
(F1.0
L134540920L
tp993
sL138554988L
(F1.0
L138554992L
tp994
sL134530669L
(F0.2974837041244841
L134530680L
tp995
sL134524527L
(F1.0
L134524543L
tp996
sL138554992L
(F1.0
L138554996L
tp997
sL134532723L
(F1.0
L134532750L
tp998
sL138554996L
(F1.0
L138555000L
tp999
sL134534006L
(F1.0
L134534021L
tp1000
sL138555000L
(F1.0
L138555004L
tp1001
sL134528276L
(F1.0
L134528302L
tp1002
sL134534779L
(F4.0
L134534784L
tp1003
sL138555004L
(F1.0
L138555008L
tp1004
sL134528637L
(F1.0
L134528668L
tp1005
sL134536830L
(F5.333333333333333
L134536837L
tp1006
sL134539541L
(F2.0
L134539547L
tp1007
sL138555008L
(F1.0
L138555012L
tp1008
sL134538881L
(F1.095890410958904
L134538888L
tp1009
sL134520450L
(F3.011764705882353
L134520460L
tp1010
sL134530691L
(F0.3966449388326455
L134530697L
tp1011
sL138555012L
(F1.0
L138555016L
tp1012
sL134540933L
(F4.0
L134540938L
tp1013
sL134524050L
(F650.1587301587301
L134524108L
tp1014
sL134528961L
(F14.0
L134528967L
tp1015
sL138555016L
(F1.0
L138555020L
tp1016
sL134530668L
(F21.88702290076336
L134530669L
tp1017
sL134540938L
(F1.0
L134540943L
tp1018
sL134537495L
(F8.0
L134537518L
tp1019
sL138555020L
(F1.0
L138555024L
tp1020
sL134532750L
(F1.0
L134532783L
tp1021
sL134540943L
(F1.0
L134540952L
tp1022
sL138555024L
(F1.0
L138555028L
tp1023
sL134521985L
(F0.924187725631769
L134522007L
tp1024
sL134541251L
(F2.6666666666666665
L134541262L
tp1025
sL138555028L
(F1.0
L138555032L
tp1026
sL134520470L
(F12.047058823529412
L134521139L
tp1027
sL134534425L
(F1.0
L134534445L
tp1028
sL134540952L
(F2.0
L134540958L
tp1029
sL134522820L
(F1.1130434782608696
L134522839L
tp1030
sL134528668L
(F2.0
L134528673L
tp1031
sL134540958L
(F4.0
L134540965L
tp1032
sL138555040L
(F1.0
L138555044L
tp1033
sL134528673L
(F2.0
L134528704L
tp1034
sL134535576L
(F1.3333333333333333
L134535598L
tp1035
sL134538523L
(F1.0
L134538561L
tp1036
sL138555044L
(F1.0
L138555048L
tp1037
sL134540965L
(F1.3333333333333333
L134540970L
tp1038
sL138555048L
(F1.0
L138555052L
tp1039
sL134530332L
(F1.9466664516679304
L134530340L
tp1040
sL134540970L
(F1.0
L134540975L
tp1041
sL134519751L
(F9.142857142857142
L134519774L
tp1042
sL138555052L
(F1.0
L138555056L
tp1043
sL134540975L
(F1.0
L134540984L
tp1044
sL134518448L
(F1.0
L134518486L
tp1045
sL134530871L
(F6.492753623188406
L134530877L
tp1046
sL134524594L
(F1.3333333333333333
L134524633L
tp1047
sL138555060L
(F1.0
L138555064L
tp1048
sL134530741L
(F0.42535898055225496
L134530752L
tp1049
sL134536886L
(F8.0
L134536909L
tp1050
sL134527666L
(F1.1267605633802817
L134527693L
tp1051
sL138555064L
(F1.0
L138555068L
tp1052
sL134534772L
(F1.3333333333333333
L134534779L
tp1053
sL138555300L
(F1.0
L138555304L
tp1054
sL138555068L
(F1.0
L138555072L
tp1055
sL134537009L
(F4.0
L134537054L
tp1056
sL134540828L
(F1.0
L134540833L
tp1057
sL134538869L
(F2.424242424242424
L134538881L
tp1058
sL134530752L
(F0.8507179611045099
L134530754L
tp1059
sL134530754L
(F1.1885259492621456
L134530760L
tp1060
sL138555076L
(F1.0
L138555080L
tp1061
sL134540997L
(F1.3333333333333333
L134541002L
tp1062
sL134534854L
(F1.3333333333333333
L134534861L
tp1063
sL138555080L
(F1.0
L138555084L
tp1064
sL134535116L
(F1.0
L134535273L
tp1065
sL134541002L
(F1.0
L134541007L
tp1066
sL138555084L
(F1.0
L138555088L
tp1067
sL134530765L
(F2.377051898524291
L134530773L
tp1068
sL134541007L
(F1.0
L134541016L
tp1069
sL138555088L
(F1.0
L138555092L
tp1070
sL134530680L
(F0.5949674082489682
L134530691L
tp1071
sL134534866L
(F1.0
L134534904L
tp1072
sL134532577L
(F1.0
L134532723L
tp1073
sL138555092L
(F1.0
L138555096L
tp1074
sL134530773L
(F4.754103797048582
L134530784L
tp1075
sL134522582L
(F5.565217391304348
L134522596L
tp1076
sL134519417L
(F2.2857142857142856
L134519471L
tp1077
sL134541016L
(F2.0
L134541022L
tp1078
sL134536921L
(F4.0
L134536974L
tp1079
sL138555100L
(F1.0
L138555104L
tp1080
sL134535802L
(F10.666666666666666
L134535813L
tp1081
sL134541022L
(F4.0
L134541029L
tp1082
sL138555104L
(F1.0
L138555108L
tp1083
sL138555108L
(F1.0
L138555112L
tp1084
sL134541029L
(F1.3333333333333333
L134541034L
tp1085
sL134531025L
(F2.0
L134531030L
tp1086
sL138555112L
(F1.0
L138555116L
tp1087
sL134541034L
(F1.0
L134541039L
tp1088
sL138555116L
(F1.0
L138555120L
tp1089
sL134539218L
(F2.0
L134539224L
tp1090
sL134522606L
(F22.26086956521739
L134522612L
tp1091
sL134541039L
(F1.0
L134541048L
tp1092
sL138555120L
(F1.0
L138555124L
tp1093
sL134538777L
(F1.0
L134538779L
tp1094
sL134530464L
(F5.354110888842723
L134530472L
tp1095
sL134522612L
(F11.130434782608695
L134522625L
tp1096
sL134540926L
(F1.3333333333333333
L134540933L
tp1097
sL134524201L
(F650.1587301587301
L134524230L
tp1098
sL134541048L
(F2.0
L134541054L
tp1099
sL134528761L
(F16.0
L134528768L
tp1100
sL134530810L
(F0.6641380069142437
L134530814L
tp1101
sL134524667L
(F5.333333333333333
L134524672L
tp1102
sL138555132L
(F1.0
L138555136L
tp1103
sL134532783L
(F1.0
L134532813L
tp1104
sL134541054L
(F4.0
L134541061L
tp1105
sL134518527L
(F1.0
L134518532L
tp1106
sL138555136L
(F1.0
L138555140L
tp1107
sL134534784L
(F1.0
L134534831L
tp1108
sL134530818L
(F0.8115942028985508
L134530824L
tp1109
sL134532867L
(F1.0
L134532891L
tp1110
sL138555140L
(F1.0
L138555144L
tp1111
sL134541061L
(F1.3333333333333333
L134541066L
tp1112
sL134524678L
(F10.666666666666666
L134524686L
tp1113
sL134528775L
(F8.0
L134528781L
tp1114
sL134539016L
(F2.0
L134539039L
tp1115
sL134541066L
(F1.0
L134541071L
tp1116
sL134540247L
(F3.5555555555555554
L134540287L
tp1117
sL138555148L
(F1.0
L138555152L
tp1118
sL134528781L
(F16.0
L134528788L
tp1119
sL134529101L
(F14.0
L134529112L
tp1120
sL134541071L
(F1.0
L134541080L
tp1121
sL138555152L
(F1.0
L138555156L
tp1122
sL134541176L
(F1.0158730158730158
L134541183L
tp1123
sL134541240L
(F1.3333333333333333
L134541251L
tp1124
sL138555156L
(F1.0
L138555160L
tp1125
sL134522645L
(F89.04347826086956
L134522656L
tp1126
sL138555160L
(F1.0
L138555164L
tp1127
sL134524548L
(F1.0
L134524594L
tp1128
sL134530842L
(F1.6231884057971016
L134530851L
tp1129
sL134532891L
(F1.0
L134532906L
tp1130
sL138555164L
(F1.0
L138555168L
tp1131
sL134541086L
(F4.0
L134541092L
tp1132
sL134539039L
(F1.3333333333333333
L134539046L
tp1133
sL138555168L
(F1.0
L138555172L
tp1134
sL134538138L
(F16.0
L134538143L
tp1135
sL134530851L
(F0.8115942028985508
L134530859L
tp1136
sL138555172L
(F1.0
L138555176L
tp1137
sL134536997L
(F5.333333333333333
L134537004L
tp1138
sL134539046L
(F4.0
L134539051L
tp1139
sL138555176L
(F1.0
L138555180L
tp1140
sL134541098L
(F5.333333333333333
L134541109L
tp1141
sL134539051L
(F1.0
L134539097L
tp1142
sL138555180L
(F1.0
L138555184L
tp1143
sL134538854L
(F3.6363636363636362
L134538869L
tp1144
sL134531888L
(F5.333333333333333
L134531926L
tp1145
sL134535516L
(F1.3333333333333333
L134535533L
tp1146
sL138555184L
(F1.0
L138555188L
tp1147
sL134538888L
(F1.0
L134538937L
tp1148
sL134522675L
(F0.45878136200716846
L134522689L
tp1149
sL138555188L
(F1.0
L138555192L
tp1150
sL134541109L
(F10.666666666666666
L134541120L
tp1151
sL134518532L
(F1.0
L134518579L
tp1152
sL134530697L
(F0.793289877665291
L134530741L
tp1153
sL138555192L
(F1.0
L138555196L
tp1154
sL134518585L
(F1.1428571428571428
L134518593L
tp1155
sL134541279L
(F1.0
L134541288L
tp1156
sL138555196L
(F1.0
L138555200L
tp1157
sL134536842L
(F4.0
L134536886L
tp1158
sL134534975L
(F2.0
L134534980L
tp1159
sL138555200L
(F1.0
L138555204L
tp1160
sL134522689L
(F0.9175627240143369
L134522700L
tp1161
sL134534980L
(F2.0
L134534985L
tp1162
sL134530885L
(F3.710144927536232
L134530896L
tp1163
sL134541127L
(F1.1636363636363636
L134541132L
tp1164
sL134532936L
(F2.0
L134532958L
tp1165
sL134520460L
(F6.023529411764706
L134520470L
tp1166
sL134540492L
(F1.6
L134540495L
tp1167
sL134530359L
(F6.8705842180186
L134530363L
tp1168
sL134541132L
(F1.0
L134541137L
tp1169
sL138555124L
(F1.0
L138555128L
tp1170
sL134537869L
(F5.333333333333333
L134537874L
tp1171
sL138555216L
(F1.0
L138555220L
tp1172
sL134541137L
(F1.0
L134541146L
tp1173
sL134530898L
(F3.1507692307692308
L134530906L
tp1174
sL134525918L
(F5.333333333333333
L134525922L
tp1175
sL138555220L
(F1.0
L138555224L
tp1176
sL134539120L
(F1.3333333333333333
L134539127L
tp1177
sL138555224L
(F1.0
L138555228L
tp1178
sL134539097L
(F2.0
L134539120L
tp1179
sL134541146L
(F2.0
L134541152L
tp1180
sL134522625L
(F22.26086956521739
L134522635L
tp1181
sL134537054L
(F8.0
L134537077L
tp1182
sL138555232L
(F1.0
L138555236L
tp1183
sL134528865L
(F2.0
L134528880L
tp1184
sL134528714L
(F8.0
L134528721L
tp1185
sL134529513L
(F43.77404580152672
L134529519L
tp1186
sL134529123L
(F14.0
L134529131L
tp1187
sL134538645L
(F16.0
L134538652L
tp1188
sL134541158L
(F8.0
L134541164L
tp1189
sL134535825L
(F42.666666666666664
L134535835L
tp1190
sL138555240L
(F1.0
L138555244L
tp1191
sL134530922L
(F3.1507692307692308
L134530930L
tp1192
sL134524779L
(F2.6666666666666665
L134524786L
tp1193
sL138555244L
(F1.0
L138555248L
tp1194
sL134537874L
(F1.3333333333333333
L134537920L
tp1195
sL138555248L
(F1.0
L138555252L
tp1196
sL134535025L
(F1.0
L134535065L
tp1197
sL134541170L
(F32.0
L134541176L
tp1198
sL138555252L
(F1.0
L138555256L
tp1199
sL134537077L
(F5.333333333333333
L134537084L
tp1200
sL134518646L
(F1.5238095238095237
L134518648L
tp1201
sL134539127L
(F4.0
L134539132L
tp1202
sL138555256L
(F1.0
L138555260L
tp1203
sL134524773L
(F1.3333333333333333
L134524779L
tp1204
sL134536744L
(F2.0
L134536766L
tp1205
sL138555260L
(F1.0
L138555264L
tp1206
sL134519786L
(F4.571428571428571
L134519833L
tp1207
sL134524672L
(F5.333333333333333
L134524678L
tp1208
sL134541183L
(F64.0
L134541188L
tp1209
sL138555264L
(F1.0
L138555268L
tp1210
sL134537089L
(F4.0
L134537139L
tp1211
sL134518660L
(F1.7297297297297298
L134518713L
tp1212
sL134528902L
(F14.0
L134528910L
tp1213
sL134536061L
(F2535.6190476190477
L134536089L
tp1214
sL138555272L
(F1.0
L138555276L
tp1215
sL134541193L
(F1.0
L134541202L
tp1216
sL138555276L
(F1.0
L138555280L
tp1217
sL134541472L
(F1.0
L134541497L
tp1218
sL134530959L
(F1.3856562922868743
L134530964L
tp1219
sL138555280L
(F1.0
L138555284L
tp1220
sL138555032L
(F1.0
L138555036L
tp1221
sL134532162L
(F1.0
L134532208L
tp1222
sL138555284L
(F1.0
L138555288L
tp1223
sL134530965L
(F0.9845020998909032
L134531006L
tp1224
sL134524822L
(F2.0
L134524838L
tp1225
sL138555288L
(F1.0
L138555292L
tp1226
sL134535065L
(F1.0
L134535116L
tp1227
sL134529924L
(F20.668228509641377
L134529929L
tp1228
sL138555292L
(F1.0
L138555296L
tp1229
sL134528925L
(F7.0
L134528948L
tp1230
sL134526878L
(F1.2648221343873518
L134526916L
tp1231
sL134540884L
(F2.0
L134540890L
tp1232
sL138555296L
(F1.0
L138555300L
tp1233
sL134538224L
(F4.0
L134538293L
tp1234
sL134535835L
(F42.666666666666664
L134535842L
tp1235
sL134541220L
(F1.0
L134541225L
tp1236
sL134524838L
(F1.0
L134524902L
tp1237
sL134532081L
(F1.0
L134532111L
tp1238
sL138555304L
(F1.0
L138555308L
tp1239
sL138555036L
(F1.0
L138555040L
tp1240
sL134522795L
(F0.6956521739130435
L134522820L
tp1241
sL138555308L
(F1.0
L138555312L
tp1242
sL134533037L
(F2.0
L134533052L
tp1243
sL138555312L
(F1.0
L138555316L
tp1244
sL134541234L
(F2.0
L134541240L
tp1245
sL134537139L
(F8.0
L134537162L
tp1246
sL138555316L
(F1.0
L138555320L
tp1247
sL134535735L
(F10.666666666666666
L134535741L
tp1248
sL138555320L
(F1.0
L138555324L
tp1249
sL134518713L
(F1.1531531531531531
L134518717L
tp1250
sL134530948L
(F2.7713125845737485
L134530959L
tp1251
sL134525697L
(F1.0
L134525709L
tp1252
sL134518717L
(F0.6666666666666666
L134518727L
tp1253
sL134531006L
(F0.5755655545999258
L134531011L
tp1254
sL138555328L
(F1.0
L138555332L
tp1255
sL134533057L
(F20.0
L134533099L
tp1256
sL134535813L
(F21.333333333333332
L134535825L
tp1257
sL134536523L
(F4.0
L134536528L
tp1258
sL134526916L
(F2.5296442687747036
L134526936L
tp1259
sL134528967L
(F28.0
L134529011L
tp1260
sL134539132L
(F1.0
L134539218L
tp1261
sL134537162L
(F5.333333333333333
L134537169L
tp1262
sL134528793L
(F1.0
L134528795L
tp1263
sL134522356L
(F1.391304347826087
L134522388L
tp1264
sL134541262L
(F2.2857142857142856
L134541269L
tp1265
sL134535501L
(F1.0
L134535516L
tp1266
sL134537169L
(F16.0
L134537174L
tp1267
sL138555236L
(F1.0
L138555240L
tp1268
sL134518739L
(F0.8888888888888888
L134518755L
tp1269
sL138554832L
(F1.0
L138554836L
tp1270
sL134534698L
(F1.7777777777777777
L134534701L
tp1271
sL134537174L
(F4.0
L134537219L
tp1272
sL134522839L
(F0.460431654676259
L134522860L
tp1273
sL134539224L
(F4.0
L134539230L
tp1274
sL134541274L
(F1.0
L134541279L
tp1275
sL134523243L
(F2.5396825396825395
L134523284L
tp1276
sL134539230L
(F8.0
L134539242L
tp1277
sL134518437L
(F1.0
L134518448L
tp1278
sL134519120L
(F1.0
L134519122L
tp1279
sL134525947L
(F1.0
L134525954L
tp1280
sL138555056L
(F1.0
L138555060L
tp1281
sL134518757L
(F0.8888888888888888
L134518776L
tp1282
sL134524902L
(F1.0
L134524963L
tp1283
sL134541288L
(F2.0
L134541294L
tp1284
sL134539242L
(F1.4545454545454546
L134539253L
tp1285
sL134533099L
(F20.0
L134533147L
tp1286
sL134522860L
(F0.920863309352518
L134522881L
tp1287
sL134541294L
(F4.0
L134541302L
tp1288
sL134524744L
(F0.6153846153846154
L134524748L
tp1289
sL134535848L
(F24.38095238095238
L134535864L
tp1290
sL134522195L
(F1.5238095238095237
L134522205L
tp1291
sL134539253L
(F2.909090909090909
L134539264L
tp1292
sL134541302L
(F1.3333333333333333
L134541305L
tp1293
sL134538453L
(F8.0
L134538476L
tp1294
sL134518776L
(F1.0
L134518792L
tp1295
sL134541305L
(F1.0
L134541307L
tp1296
sL134541307L
(F1.0
L134541316L
tp1297
sL134534701L
(F1.2307692307692308
L134534703L
tp1298
sL134529022L
(F28.0
L134529030L
tp1299
s.